
/home/zhanxn/Work/riscv/riscv-compliance/work/rv32i/I-ADD-01.elf:     file format elf32-littleriscv


Disassembly of section .text.trap:

00000000 <_trap_start>:
   0:	0340006f          	j	34 <_trap_exception>
   4:	0540006f          	j	58 <_int_exc>
   8:	0500006f          	j	58 <_int_exc>
   c:	04c0006f          	j	58 <_int_exc>
  10:	0480006f          	j	58 <_int_exc>
  14:	0440006f          	j	58 <_int_exc>
  18:	0400006f          	j	58 <_int_exc>
  1c:	03c0006f          	j	58 <_int_exc>
  20:	0380006f          	j	58 <_int_exc>
  24:	0340006f          	j	58 <_int_exc>
  28:	0300006f          	j	58 <_int_exc>
  2c:	02c0006f          	j	58 <_int_exc>
  30:	0280006f          	j	58 <_int_exc>

00000034 <_trap_exception>:
  34:	34202573          	csrr	a0,mcause
  38:	00b00593          	li	a1,11
  3c:	00b50863          	beq	a0,a1,4c <_trap_exception+0x18>
  40:	00020597          	auipc	a1,0x20
  44:	1c058593          	addi	a1,a1,448 # 20200 <begin_signature>
  48:	00a5a023          	sw	a0,0(a1)
  4c:	00000517          	auipc	a0,0x0
  50:	07050513          	addi	a0,a0,112 # bc <write_tohost>
  54:	00050067          	jr	a0

00000058 <_int_exc>:
  58:	00000517          	auipc	a0,0x0
  5c:	06450513          	addi	a0,a0,100 # bc <write_tohost>
  60:	00050067          	jr	a0

Disassembly of section .text.init:

00000080 <_start>:
  80:	0480006f          	j	c8 <reset_vector>

00000084 <trap_vector>:
  84:	34202f73          	csrr	t5,mcause
  88:	00800f93          	li	t6,8
  8c:	03ff0863          	beq	t5,t6,bc <write_tohost>
  90:	00900f93          	li	t6,9
  94:	03ff0463          	beq	t5,t6,bc <write_tohost>
  98:	00b00f93          	li	t6,11
  9c:	03ff0063          	beq	t5,t6,bc <write_tohost>
  a0:	00000f13          	li	t5,0
  a4:	000f0463          	beqz	t5,ac <trap_vector+0x28>
  a8:	000f0067          	jr	t5
  ac:	34202f73          	csrr	t5,mcause
  b0:	000f5463          	bgez	t5,b8 <handle_exception>
  b4:	0040006f          	j	b8 <handle_exception>

000000b8 <handle_exception>:
  b8:	5391e193          	ori	gp,gp,1337

000000bc <write_tohost>:
  bc:	00020f17          	auipc	t5,0x20
  c0:	f43f2223          	sw	gp,-188(t5) # 20000 <tohost>
  c4:	ff9ff06f          	j	bc <write_tohost>

000000c8 <reset_vector>:
  c8:	f1402573          	csrr	a0,mhartid
  cc:	00051063          	bnez	a0,cc <reset_vector+0x4>
  d0:	00000193          	li	gp,0
  d4:	00000297          	auipc	t0,0x0
  d8:	fb028293          	addi	t0,t0,-80 # 84 <trap_vector>
  dc:	30529073          	csrw	mtvec,t0
  e0:	00100513          	li	a0,1
  e4:	01f51513          	slli	a0,a0,0x1f
  e8:	00054863          	bltz	a0,f8 <reset_vector+0x30>
  ec:	0ff0000f          	fence
  f0:	00100193          	li	gp,1
  f4:	00000073          	ecall
  f8:	00000293          	li	t0,0
  fc:	00028e63          	beqz	t0,118 <reset_vector+0x50>
 100:	10529073          	csrw	stvec,t0
 104:	0000b2b7          	lui	t0,0xb
 108:	10928293          	addi	t0,t0,265 # b109 <_etext+0x44f9>
 10c:	30229073          	csrw	medeleg,t0
 110:	30202373          	csrr	t1,medeleg
 114:	fa6292e3          	bne	t0,t1,b8 <handle_exception>
 118:	30005073          	csrwi	mstatus,0
 11c:	00002537          	lui	a0,0x2
 120:	80050513          	addi	a0,a0,-2048 # 1800 <FN_WriteA0_common+0x15cc>
 124:	30052073          	csrs	mstatus,a0
 128:	00000297          	auipc	t0,0x0
 12c:	01428293          	addi	t0,t0,20 # 13c <begin_testcode>
 130:	34129073          	csrw	mepc,t0
 134:	f1402573          	csrr	a0,mhartid
 138:	30200073          	mret

0000013c <begin_testcode>:
 13c:	00020f97          	auipc	t6,0x20
 140:	1c4f8f93          	addi	t6,t6,452 # 20300 <begin_regstate>
 144:	001fa223          	sw	ra,4(t6)
 148:	005faa23          	sw	t0,20(t6)
 14c:	006fac23          	sw	t1,24(t6)
 150:	028fa023          	sw	s0,32(t6)
 154:	02afa423          	sw	a0,40(t6)
 158:	00000413          	li	s0,0
 15c:	00000293          	li	t0,0
 160:	00541463          	bne	s0,t0,168 <begin_testcode+0x2c>
 164:	3ac0006f          	j	510 <FN_WriteA0_common+0x2dc>
 168:	00020f97          	auipc	t6,0x20
 16c:	198f8f93          	addi	t6,t6,408 # 20300 <begin_regstate>
 170:	001fa223          	sw	ra,4(t6)
 174:	005faa23          	sw	t0,20(t6)
 178:	006fac23          	sw	t1,24(t6)
 17c:	028fa023          	sw	s0,32(t6)
 180:	02afa423          	sw	a0,40(t6)
 184:	00000013          	nop
 188:	00000013          	nop
 18c:	00000013          	nop
 190:	00000013          	nop
 194:	00000013          	nop
 198:	00000013          	nop
 19c:	00000013          	nop
 1a0:	00000013          	nop
 1a4:	00000013          	nop
 1a8:	00000013          	nop
 1ac:	00000013          	nop
 1b0:	00000013          	nop
 1b4:	00000013          	nop
 1b8:	00000013          	nop

Disassembly of section .tohost:

00020000 <tohost>:
	...

00020100 <fromhost>:
	...

Disassembly of section .text:

000001bc <FN_WriteStr>:
     1bc:	00050293          	mv	t0,a0
     1c0:	0002c503          	lbu	a0,0(t0)
     1c4:	00128293          	addi	t0,t0,1
     1c8:	00050863          	beqz	a0,1d8 <FN_WriteStr+0x1c>
     1cc:	10000e37          	lui	t3,0x10000
     1d0:	00ae2023          	sw	a0,0(t3) # 10000000 <_edata+0xffdf126>
     1d4:	fedff06f          	j	1c0 <FN_WriteStr+0x4>
     1d8:	00008067          	ret

000001dc <FN_WriteA0>:
     1dc:	00050293          	mv	t0,a0
     1e0:	fff00513          	li	a0,-1
     1e4:	01f55513          	srli	a0,a0,0x1f
     1e8:	00155513          	srli	a0,a0,0x1
     1ec:	02051463          	bnez	a0,214 <FN_WriteA0_64>

000001f0 <FN_WriteA0_32>:
     1f0:	00800313          	li	t1,8
     1f4:	00439393          	slli	t2,t2,0x4
     1f8:	00f2f513          	andi	a0,t0,15
     1fc:	0042d293          	srli	t0,t0,0x4
     200:	00a3e3b3          	or	t2,t2,a0
     204:	fff30313          	addi	t1,t1,-1
     208:	fe0316e3          	bnez	t1,1f4 <FN_WriteA0_32+0x4>
     20c:	00800313          	li	t1,8
     210:	0240006f          	j	234 <FN_WriteA0_common>

00000214 <FN_WriteA0_64>:
     214:	01000313          	li	t1,16
     218:	00439393          	slli	t2,t2,0x4
     21c:	00f2f513          	andi	a0,t0,15
     220:	0042d293          	srli	t0,t0,0x4
     224:	00a3e3b3          	or	t2,t2,a0
     228:	fff30313          	addi	t1,t1,-1
     22c:	fe0316e3          	bnez	t1,218 <FN_WriteA0_64+0x4>
     230:	01000313          	li	t1,16

00000234 <FN_WriteA0_common>:
     234:	00a00293          	li	t0,10
     238:	00f3f513          	andi	a0,t2,15
     23c:	00554663          	blt	a0,t0,248 <FN_WriteA0_common+0x14>
     240:	05750513          	addi	a0,a0,87
     244:	0080006f          	j	24c <FN_WriteA0_common+0x18>
     248:	03050513          	addi	a0,a0,48
     24c:	10000e37          	lui	t3,0x10000
     250:	00ae2023          	sw	a0,0(t3) # 10000000 <_edata+0xffdf126>
     254:	0043d393          	srli	t2,t2,0x4
     258:	fff30313          	addi	t1,t1,-1
     25c:	fc031ee3          	bnez	t1,238 <FN_WriteA0_common+0x4>
     260:	00008067          	ret
     264:	00020517          	auipc	a0,0x20
     268:	1a050513          	addi	a0,a0,416 # 20404 <end_regstate+0x4>
     26c:	f51ff0ef          	jal	1bc <FN_WriteStr>
     270:	00020f97          	auipc	t6,0x20
     274:	090f8f93          	addi	t6,t6,144 # 20300 <begin_regstate>
     278:	004fa083          	lw	ra,4(t6)
     27c:	014fa283          	lw	t0,20(t6)
     280:	018fa303          	lw	t1,24(t6)
     284:	020fa403          	lw	s0,32(t6)
     288:	028fa503          	lw	a0,40(t6)
     28c:	00020f97          	auipc	t6,0x20
     290:	074f8f93          	addi	t6,t6,116 # 20300 <begin_regstate>
     294:	001fa223          	sw	ra,4(t6)
     298:	005faa23          	sw	t0,20(t6)
     29c:	006fac23          	sw	t1,24(t6)
     2a0:	028fa023          	sw	s0,32(t6)
     2a4:	02afa423          	sw	a0,40(t6)
     2a8:	00020517          	auipc	a0,0x20
     2ac:	17750513          	addi	a0,a0,375 # 2041f <end_regstate+0x1f>
     2b0:	f0dff0ef          	jal	1bc <FN_WriteStr>
     2b4:	00020f97          	auipc	t6,0x20
     2b8:	04cf8f93          	addi	t6,t6,76 # 20300 <begin_regstate>
     2bc:	004fa083          	lw	ra,4(t6)
     2c0:	014fa283          	lw	t0,20(t6)
     2c4:	018fa303          	lw	t1,24(t6)
     2c8:	020fa403          	lw	s0,32(t6)
     2cc:	028fa503          	lw	a0,40(t6)
     2d0:	00020f97          	auipc	t6,0x20
     2d4:	030f8f93          	addi	t6,t6,48 # 20300 <begin_regstate>
     2d8:	001fa223          	sw	ra,4(t6)
     2dc:	005faa23          	sw	t0,20(t6)
     2e0:	006fac23          	sw	t1,24(t6)
     2e4:	028fa023          	sw	s0,32(t6)
     2e8:	02afa423          	sw	a0,40(t6)
     2ec:	00020517          	auipc	a0,0x20
     2f0:	14250513          	addi	a0,a0,322 # 2042e <end_regstate+0x2e>
     2f4:	ec9ff0ef          	jal	1bc <FN_WriteStr>
     2f8:	00020f97          	auipc	t6,0x20
     2fc:	008f8f93          	addi	t6,t6,8 # 20300 <begin_regstate>
     300:	004fa083          	lw	ra,4(t6)
     304:	014fa283          	lw	t0,20(t6)
     308:	018fa303          	lw	t1,24(t6)
     30c:	020fa403          	lw	s0,32(t6)
     310:	028fa503          	lw	a0,40(t6)
     314:	00020f97          	auipc	t6,0x20
     318:	fecf8f93          	addi	t6,t6,-20 # 20300 <begin_regstate>
     31c:	001fa223          	sw	ra,4(t6)
     320:	005faa23          	sw	t0,20(t6)
     324:	006fac23          	sw	t1,24(t6)
     328:	028fa023          	sw	s0,32(t6)
     32c:	02afa423          	sw	a0,40(t6)
     330:	00020517          	auipc	a0,0x20
     334:	10650513          	addi	a0,a0,262 # 20436 <end_regstate+0x36>
     338:	e85ff0ef          	jal	1bc <FN_WriteStr>
     33c:	00020f97          	auipc	t6,0x20
     340:	fc4f8f93          	addi	t6,t6,-60 # 20300 <begin_regstate>
     344:	004fa083          	lw	ra,4(t6)
     348:	014fa283          	lw	t0,20(t6)
     34c:	018fa303          	lw	t1,24(t6)
     350:	020fa403          	lw	s0,32(t6)
     354:	028fa503          	lw	a0,40(t6)
     358:	00020f97          	auipc	t6,0x20
     35c:	fa8f8f93          	addi	t6,t6,-88 # 20300 <begin_regstate>
     360:	001fa223          	sw	ra,4(t6)
     364:	005faa23          	sw	t0,20(t6)
     368:	006fac23          	sw	t1,24(t6)
     36c:	028fa023          	sw	s0,32(t6)
     370:	02afa423          	sw	a0,40(t6)
     374:	00020517          	auipc	a0,0x20
     378:	0c550513          	addi	a0,a0,197 # 20439 <end_regstate+0x39>
     37c:	e41ff0ef          	jal	1bc <FN_WriteStr>
     380:	00020f97          	auipc	t6,0x20
     384:	f80f8f93          	addi	t6,t6,-128 # 20300 <begin_regstate>
     388:	004fa083          	lw	ra,4(t6)
     38c:	014fa283          	lw	t0,20(t6)
     390:	018fa303          	lw	t1,24(t6)
     394:	020fa403          	lw	s0,32(t6)
     398:	028fa503          	lw	a0,40(t6)
     39c:	00020f97          	auipc	t6,0x20
     3a0:	f64f8f93          	addi	t6,t6,-156 # 20300 <begin_regstate>
     3a4:	001fa223          	sw	ra,4(t6)
     3a8:	005faa23          	sw	t0,20(t6)
     3ac:	006fac23          	sw	t1,24(t6)
     3b0:	028fa023          	sw	s0,32(t6)
     3b4:	02afa423          	sw	a0,40(t6)
     3b8:	00020517          	auipc	a0,0x20
     3bc:	08450513          	addi	a0,a0,132 # 2043c <end_regstate+0x3c>
     3c0:	dfdff0ef          	jal	1bc <FN_WriteStr>
     3c4:	00020f97          	auipc	t6,0x20
     3c8:	f3cf8f93          	addi	t6,t6,-196 # 20300 <begin_regstate>
     3cc:	004fa083          	lw	ra,4(t6)
     3d0:	014fa283          	lw	t0,20(t6)
     3d4:	018fa303          	lw	t1,24(t6)
     3d8:	020fa403          	lw	s0,32(t6)
     3dc:	028fa503          	lw	a0,40(t6)
     3e0:	00020f97          	auipc	t6,0x20
     3e4:	f20f8f93          	addi	t6,t6,-224 # 20300 <begin_regstate>
     3e8:	001fa223          	sw	ra,4(t6)
     3ec:	005faa23          	sw	t0,20(t6)
     3f0:	006fac23          	sw	t1,24(t6)
     3f4:	028fa023          	sw	s0,32(t6)
     3f8:	02afa423          	sw	a0,40(t6)
     3fc:	00020517          	auipc	a0,0x20
     400:	04350513          	addi	a0,a0,67 # 2043f <end_regstate+0x3f>
     404:	db9ff0ef          	jal	1bc <FN_WriteStr>
     408:	00020f97          	auipc	t6,0x20
     40c:	ef8f8f93          	addi	t6,t6,-264 # 20300 <begin_regstate>
     410:	004fa083          	lw	ra,4(t6)
     414:	014fa283          	lw	t0,20(t6)
     418:	018fa303          	lw	t1,24(t6)
     41c:	020fa403          	lw	s0,32(t6)
     420:	028fa503          	lw	a0,40(t6)
     424:	00040513          	mv	a0,s0
     428:	db5ff0ef          	jal	1dc <FN_WriteA0>
     42c:	00020f97          	auipc	t6,0x20
     430:	ed4f8f93          	addi	t6,t6,-300 # 20300 <begin_regstate>
     434:	001fa223          	sw	ra,4(t6)
     438:	005faa23          	sw	t0,20(t6)
     43c:	006fac23          	sw	t1,24(t6)
     440:	028fa023          	sw	s0,32(t6)
     444:	02afa423          	sw	a0,40(t6)
     448:	00020517          	auipc	a0,0x20
     44c:	ff950513          	addi	a0,a0,-7 # 20441 <end_regstate+0x41>
     450:	d6dff0ef          	jal	1bc <FN_WriteStr>
     454:	00020f97          	auipc	t6,0x20
     458:	eacf8f93          	addi	t6,t6,-340 # 20300 <begin_regstate>
     45c:	004fa083          	lw	ra,4(t6)
     460:	014fa283          	lw	t0,20(t6)
     464:	018fa303          	lw	t1,24(t6)
     468:	020fa403          	lw	s0,32(t6)
     46c:	028fa503          	lw	a0,40(t6)
     470:	00020f97          	auipc	t6,0x20
     474:	e90f8f93          	addi	t6,t6,-368 # 20300 <begin_regstate>
     478:	001fa223          	sw	ra,4(t6)
     47c:	005faa23          	sw	t0,20(t6)
     480:	006fac23          	sw	t1,24(t6)
     484:	028fa023          	sw	s0,32(t6)
     488:	02afa423          	sw	a0,40(t6)
     48c:	00020517          	auipc	a0,0x20
     490:	fbb50513          	addi	a0,a0,-69 # 20447 <end_regstate+0x47>
     494:	d29ff0ef          	jal	1bc <FN_WriteStr>
     498:	00020f97          	auipc	t6,0x20
     49c:	e68f8f93          	addi	t6,t6,-408 # 20300 <begin_regstate>
     4a0:	004fa083          	lw	ra,4(t6)
     4a4:	014fa283          	lw	t0,20(t6)
     4a8:	018fa303          	lw	t1,24(t6)
     4ac:	020fa403          	lw	s0,32(t6)
     4b0:	028fa503          	lw	a0,40(t6)
     4b4:	00020f97          	auipc	t6,0x20
     4b8:	e4cf8f93          	addi	t6,t6,-436 # 20300 <begin_regstate>
     4bc:	001fa223          	sw	ra,4(t6)
     4c0:	005faa23          	sw	t0,20(t6)
     4c4:	006fac23          	sw	t1,24(t6)
     4c8:	028fa023          	sw	s0,32(t6)
     4cc:	02afa423          	sw	a0,40(t6)
     4d0:	00020517          	auipc	a0,0x20
     4d4:	f8250513          	addi	a0,a0,-126 # 20452 <end_regstate+0x52>
     4d8:	ce5ff0ef          	jal	1bc <FN_WriteStr>
     4dc:	00020f97          	auipc	t6,0x20
     4e0:	e24f8f93          	addi	t6,t6,-476 # 20300 <begin_regstate>
     4e4:	004fa083          	lw	ra,4(t6)
     4e8:	014fa283          	lw	t0,20(t6)
     4ec:	018fa303          	lw	t1,24(t6)
     4f0:	020fa403          	lw	s0,32(t6)
     4f4:	028fa503          	lw	a0,40(t6)
     4f8:	06400193          	li	gp,100
     4fc:	0ff0000f          	fence
     500:	00018063          	beqz	gp,500 <FN_WriteA0_common+0x2cc>
     504:	00119193          	slli	gp,gp,0x1
     508:	0011e193          	ori	gp,gp,1
     50c:	00000073          	ecall
     510:	00020f97          	auipc	t6,0x20
     514:	df0f8f93          	addi	t6,t6,-528 # 20300 <begin_regstate>
     518:	004fa083          	lw	ra,4(t6)
     51c:	014fa283          	lw	t0,20(t6)
     520:	018fa303          	lw	t1,24(t6)
     524:	020fa403          	lw	s0,32(t6)
     528:	028fa503          	lw	a0,40(t6)
     52c:	00020f97          	auipc	t6,0x20
     530:	dd4f8f93          	addi	t6,t6,-556 # 20300 <begin_regstate>
     534:	001fa223          	sw	ra,4(t6)
     538:	005faa23          	sw	t0,20(t6)
     53c:	006fac23          	sw	t1,24(t6)
     540:	028fa023          	sw	s0,32(t6)
     544:	02afa423          	sw	a0,40(t6)
     548:	00020517          	auipc	a0,0x20
     54c:	f0c50513          	addi	a0,a0,-244 # 20454 <end_regstate+0x54>
     550:	c6dff0ef          	jal	1bc <FN_WriteStr>
     554:	00020f97          	auipc	t6,0x20
     558:	dacf8f93          	addi	t6,t6,-596 # 20300 <begin_regstate>
     55c:	004fa083          	lw	ra,4(t6)
     560:	014fa283          	lw	t0,20(t6)
     564:	018fa303          	lw	t1,24(t6)
     568:	020fa403          	lw	s0,32(t6)
     56c:	028fa503          	lw	a0,40(t6)
     570:	00020f97          	auipc	t6,0x20
     574:	d90f8f93          	addi	t6,t6,-624 # 20300 <begin_regstate>
     578:	001fa223          	sw	ra,4(t6)
     57c:	005faa23          	sw	t0,20(t6)
     580:	006fac23          	sw	t1,24(t6)
     584:	028fa023          	sw	s0,32(t6)
     588:	02afa423          	sw	a0,40(t6)
     58c:	00020517          	auipc	a0,0x20
     590:	ed450513          	addi	a0,a0,-300 # 20460 <end_regstate+0x60>
     594:	c29ff0ef          	jal	1bc <FN_WriteStr>
     598:	00020f97          	auipc	t6,0x20
     59c:	d68f8f93          	addi	t6,t6,-664 # 20300 <begin_regstate>
     5a0:	004fa083          	lw	ra,4(t6)
     5a4:	014fa283          	lw	t0,20(t6)
     5a8:	018fa303          	lw	t1,24(t6)
     5ac:	020fa403          	lw	s0,32(t6)
     5b0:	028fa503          	lw	a0,40(t6)
     5b4:	00020297          	auipc	t0,0x20
     5b8:	c4c28293          	addi	t0,t0,-948 # 20200 <begin_signature>
     5bc:	fff00f93          	li	t6,-1
     5c0:	00000813          	li	a6,0
     5c4:	010f8033          	add	zero,t6,a6
     5c8:	0002a023          	sw	zero,0(t0)
     5cc:	00020317          	auipc	t1,0x20
     5d0:	d3430313          	addi	t1,t1,-716 # 20300 <begin_regstate>
     5d4:	00132223          	sw	ra,4(t1)
     5d8:	00532a23          	sw	t0,20(t1)
     5dc:	00632c23          	sw	t1,24(t1)
     5e0:	02832023          	sw	s0,32(t1)
     5e4:	02a32423          	sw	a0,40(t1)
     5e8:	00000413          	li	s0,0
     5ec:	00000293          	li	t0,0
     5f0:	2c540663          	beq	s0,t0,8bc <FN_WriteA0_common+0x688>
     5f4:	00020f97          	auipc	t6,0x20
     5f8:	d0cf8f93          	addi	t6,t6,-756 # 20300 <begin_regstate>
     5fc:	001fa223          	sw	ra,4(t6)
     600:	005faa23          	sw	t0,20(t6)
     604:	006fac23          	sw	t1,24(t6)
     608:	028fa023          	sw	s0,32(t6)
     60c:	02afa423          	sw	a0,40(t6)
     610:	00020517          	auipc	a0,0x20
     614:	e6150513          	addi	a0,a0,-415 # 20471 <end_regstate+0x71>
     618:	ba5ff0ef          	jal	1bc <FN_WriteStr>
     61c:	00020f97          	auipc	t6,0x20
     620:	ce4f8f93          	addi	t6,t6,-796 # 20300 <begin_regstate>
     624:	004fa083          	lw	ra,4(t6)
     628:	014fa283          	lw	t0,20(t6)
     62c:	018fa303          	lw	t1,24(t6)
     630:	020fa403          	lw	s0,32(t6)
     634:	028fa503          	lw	a0,40(t6)
     638:	00020f97          	auipc	t6,0x20
     63c:	cc8f8f93          	addi	t6,t6,-824 # 20300 <begin_regstate>
     640:	001fa223          	sw	ra,4(t6)
     644:	005faa23          	sw	t0,20(t6)
     648:	006fac23          	sw	t1,24(t6)
     64c:	028fa023          	sw	s0,32(t6)
     650:	02afa423          	sw	a0,40(t6)
     654:	00020517          	auipc	a0,0x20
     658:	e3850513          	addi	a0,a0,-456 # 2048c <end_regstate+0x8c>
     65c:	b61ff0ef          	jal	1bc <FN_WriteStr>
     660:	00020f97          	auipc	t6,0x20
     664:	ca0f8f93          	addi	t6,t6,-864 # 20300 <begin_regstate>
     668:	004fa083          	lw	ra,4(t6)
     66c:	014fa283          	lw	t0,20(t6)
     670:	018fa303          	lw	t1,24(t6)
     674:	020fa403          	lw	s0,32(t6)
     678:	028fa503          	lw	a0,40(t6)
     67c:	00020f97          	auipc	t6,0x20
     680:	c84f8f93          	addi	t6,t6,-892 # 20300 <begin_regstate>
     684:	001fa223          	sw	ra,4(t6)
     688:	005faa23          	sw	t0,20(t6)
     68c:	006fac23          	sw	t1,24(t6)
     690:	028fa023          	sw	s0,32(t6)
     694:	02afa423          	sw	a0,40(t6)
     698:	00020517          	auipc	a0,0x20
     69c:	e0350513          	addi	a0,a0,-509 # 2049b <end_regstate+0x9b>
     6a0:	b1dff0ef          	jal	1bc <FN_WriteStr>
     6a4:	00020f97          	auipc	t6,0x20
     6a8:	c5cf8f93          	addi	t6,t6,-932 # 20300 <begin_regstate>
     6ac:	004fa083          	lw	ra,4(t6)
     6b0:	014fa283          	lw	t0,20(t6)
     6b4:	018fa303          	lw	t1,24(t6)
     6b8:	020fa403          	lw	s0,32(t6)
     6bc:	028fa503          	lw	a0,40(t6)
     6c0:	00020f97          	auipc	t6,0x20
     6c4:	c40f8f93          	addi	t6,t6,-960 # 20300 <begin_regstate>
     6c8:	001fa223          	sw	ra,4(t6)
     6cc:	005faa23          	sw	t0,20(t6)
     6d0:	006fac23          	sw	t1,24(t6)
     6d4:	028fa023          	sw	s0,32(t6)
     6d8:	02afa423          	sw	a0,40(t6)
     6dc:	00020517          	auipc	a0,0x20
     6e0:	dc750513          	addi	a0,a0,-569 # 204a3 <end_regstate+0xa3>
     6e4:	ad9ff0ef          	jal	1bc <FN_WriteStr>
     6e8:	00020f97          	auipc	t6,0x20
     6ec:	c18f8f93          	addi	t6,t6,-1000 # 20300 <begin_regstate>
     6f0:	004fa083          	lw	ra,4(t6)
     6f4:	014fa283          	lw	t0,20(t6)
     6f8:	018fa303          	lw	t1,24(t6)
     6fc:	020fa403          	lw	s0,32(t6)
     700:	028fa503          	lw	a0,40(t6)
     704:	00020f97          	auipc	t6,0x20
     708:	bfcf8f93          	addi	t6,t6,-1028 # 20300 <begin_regstate>
     70c:	001fa223          	sw	ra,4(t6)
     710:	005faa23          	sw	t0,20(t6)
     714:	006fac23          	sw	t1,24(t6)
     718:	028fa023          	sw	s0,32(t6)
     71c:	02afa423          	sw	a0,40(t6)
     720:	00020517          	auipc	a0,0x20
     724:	d8650513          	addi	a0,a0,-634 # 204a6 <end_regstate+0xa6>
     728:	a95ff0ef          	jal	1bc <FN_WriteStr>
     72c:	00020f97          	auipc	t6,0x20
     730:	bd4f8f93          	addi	t6,t6,-1068 # 20300 <begin_regstate>
     734:	004fa083          	lw	ra,4(t6)
     738:	014fa283          	lw	t0,20(t6)
     73c:	018fa303          	lw	t1,24(t6)
     740:	020fa403          	lw	s0,32(t6)
     744:	028fa503          	lw	a0,40(t6)
     748:	00020f97          	auipc	t6,0x20
     74c:	bb8f8f93          	addi	t6,t6,-1096 # 20300 <begin_regstate>
     750:	001fa223          	sw	ra,4(t6)
     754:	005faa23          	sw	t0,20(t6)
     758:	006fac23          	sw	t1,24(t6)
     75c:	028fa023          	sw	s0,32(t6)
     760:	02afa423          	sw	a0,40(t6)
     764:	00020517          	auipc	a0,0x20
     768:	d4550513          	addi	a0,a0,-699 # 204a9 <end_regstate+0xa9>
     76c:	a51ff0ef          	jal	1bc <FN_WriteStr>
     770:	00020f97          	auipc	t6,0x20
     774:	b90f8f93          	addi	t6,t6,-1136 # 20300 <begin_regstate>
     778:	004fa083          	lw	ra,4(t6)
     77c:	014fa283          	lw	t0,20(t6)
     780:	018fa303          	lw	t1,24(t6)
     784:	020fa403          	lw	s0,32(t6)
     788:	028fa503          	lw	a0,40(t6)
     78c:	00020f97          	auipc	t6,0x20
     790:	b74f8f93          	addi	t6,t6,-1164 # 20300 <begin_regstate>
     794:	001fa223          	sw	ra,4(t6)
     798:	005faa23          	sw	t0,20(t6)
     79c:	006fac23          	sw	t1,24(t6)
     7a0:	028fa023          	sw	s0,32(t6)
     7a4:	02afa423          	sw	a0,40(t6)
     7a8:	00020517          	auipc	a0,0x20
     7ac:	d0450513          	addi	a0,a0,-764 # 204ac <end_regstate+0xac>
     7b0:	a0dff0ef          	jal	1bc <FN_WriteStr>
     7b4:	00020f97          	auipc	t6,0x20
     7b8:	b4cf8f93          	addi	t6,t6,-1204 # 20300 <begin_regstate>
     7bc:	004fa083          	lw	ra,4(t6)
     7c0:	014fa283          	lw	t0,20(t6)
     7c4:	018fa303          	lw	t1,24(t6)
     7c8:	020fa403          	lw	s0,32(t6)
     7cc:	028fa503          	lw	a0,40(t6)
     7d0:	00040513          	mv	a0,s0
     7d4:	a09ff0ef          	jal	1dc <FN_WriteA0>
     7d8:	00020f97          	auipc	t6,0x20
     7dc:	b28f8f93          	addi	t6,t6,-1240 # 20300 <begin_regstate>
     7e0:	001fa223          	sw	ra,4(t6)
     7e4:	005faa23          	sw	t0,20(t6)
     7e8:	006fac23          	sw	t1,24(t6)
     7ec:	028fa023          	sw	s0,32(t6)
     7f0:	02afa423          	sw	a0,40(t6)
     7f4:	00020517          	auipc	a0,0x20
     7f8:	cba50513          	addi	a0,a0,-838 # 204ae <end_regstate+0xae>
     7fc:	9c1ff0ef          	jal	1bc <FN_WriteStr>
     800:	00020f97          	auipc	t6,0x20
     804:	b00f8f93          	addi	t6,t6,-1280 # 20300 <begin_regstate>
     808:	004fa083          	lw	ra,4(t6)
     80c:	014fa283          	lw	t0,20(t6)
     810:	018fa303          	lw	t1,24(t6)
     814:	020fa403          	lw	s0,32(t6)
     818:	028fa503          	lw	a0,40(t6)
     81c:	00020f97          	auipc	t6,0x20
     820:	ae4f8f93          	addi	t6,t6,-1308 # 20300 <begin_regstate>
     824:	001fa223          	sw	ra,4(t6)
     828:	005faa23          	sw	t0,20(t6)
     82c:	006fac23          	sw	t1,24(t6)
     830:	028fa023          	sw	s0,32(t6)
     834:	02afa423          	sw	a0,40(t6)
     838:	00020517          	auipc	a0,0x20
     83c:	c7c50513          	addi	a0,a0,-900 # 204b4 <end_regstate+0xb4>
     840:	97dff0ef          	jal	1bc <FN_WriteStr>
     844:	00020f97          	auipc	t6,0x20
     848:	abcf8f93          	addi	t6,t6,-1348 # 20300 <begin_regstate>
     84c:	004fa083          	lw	ra,4(t6)
     850:	014fa283          	lw	t0,20(t6)
     854:	018fa303          	lw	t1,24(t6)
     858:	020fa403          	lw	s0,32(t6)
     85c:	028fa503          	lw	a0,40(t6)
     860:	00020f97          	auipc	t6,0x20
     864:	aa0f8f93          	addi	t6,t6,-1376 # 20300 <begin_regstate>
     868:	001fa223          	sw	ra,4(t6)
     86c:	005faa23          	sw	t0,20(t6)
     870:	006fac23          	sw	t1,24(t6)
     874:	028fa023          	sw	s0,32(t6)
     878:	02afa423          	sw	a0,40(t6)
     87c:	00020517          	auipc	a0,0x20
     880:	c3c50513          	addi	a0,a0,-964 # 204b8 <end_regstate+0xb8>
     884:	939ff0ef          	jal	1bc <FN_WriteStr>
     888:	00020f97          	auipc	t6,0x20
     88c:	a78f8f93          	addi	t6,t6,-1416 # 20300 <begin_regstate>
     890:	004fa083          	lw	ra,4(t6)
     894:	014fa283          	lw	t0,20(t6)
     898:	018fa303          	lw	t1,24(t6)
     89c:	020fa403          	lw	s0,32(t6)
     8a0:	028fa503          	lw	a0,40(t6)
     8a4:	06400193          	li	gp,100
     8a8:	0ff0000f          	fence
     8ac:	00018063          	beqz	gp,8ac <FN_WriteA0_common+0x678>
     8b0:	00119193          	slli	gp,gp,0x1
     8b4:	0011e193          	ori	gp,gp,1
     8b8:	00000073          	ecall
     8bc:	00020317          	auipc	t1,0x20
     8c0:	a4430313          	addi	t1,t1,-1468 # 20300 <begin_regstate>
     8c4:	00432083          	lw	ra,4(t1)
     8c8:	01432283          	lw	t0,20(t1)
     8cc:	01832303          	lw	t1,24(t1)
     8d0:	02032403          	lw	s0,32(t1)
     8d4:	02832503          	lw	a0,40(t1)
     8d8:	00100f13          	li	t5,1
     8dc:	80100793          	li	a5,-2047
     8e0:	00ff00b3          	add	ra,t5,a5
     8e4:	0012a223          	sw	ra,4(t0)
     8e8:	00020317          	auipc	t1,0x20
     8ec:	a1830313          	addi	t1,t1,-1512 # 20300 <begin_regstate>
     8f0:	00132223          	sw	ra,4(t1)
     8f4:	00532a23          	sw	t0,20(t1)
     8f8:	00632c23          	sw	t1,24(t1)
     8fc:	02832023          	sw	s0,32(t1)
     900:	02a32423          	sw	a0,40(t1)
     904:	00008413          	mv	s0,ra
     908:	80200293          	li	t0,-2046
     90c:	2c540663          	beq	s0,t0,bd8 <FN_WriteA0_common+0x9a4>
     910:	00020f97          	auipc	t6,0x20
     914:	9f0f8f93          	addi	t6,t6,-1552 # 20300 <begin_regstate>
     918:	001fa223          	sw	ra,4(t6)
     91c:	005faa23          	sw	t0,20(t6)
     920:	006fac23          	sw	t1,24(t6)
     924:	028fa023          	sw	s0,32(t6)
     928:	02afa423          	sw	a0,40(t6)
     92c:	00020517          	auipc	a0,0x20
     930:	b8e50513          	addi	a0,a0,-1138 # 204ba <end_regstate+0xba>
     934:	889ff0ef          	jal	1bc <FN_WriteStr>
     938:	00020f97          	auipc	t6,0x20
     93c:	9c8f8f93          	addi	t6,t6,-1592 # 20300 <begin_regstate>
     940:	004fa083          	lw	ra,4(t6)
     944:	014fa283          	lw	t0,20(t6)
     948:	018fa303          	lw	t1,24(t6)
     94c:	020fa403          	lw	s0,32(t6)
     950:	028fa503          	lw	a0,40(t6)
     954:	00020f97          	auipc	t6,0x20
     958:	9acf8f93          	addi	t6,t6,-1620 # 20300 <begin_regstate>
     95c:	001fa223          	sw	ra,4(t6)
     960:	005faa23          	sw	t0,20(t6)
     964:	006fac23          	sw	t1,24(t6)
     968:	028fa023          	sw	s0,32(t6)
     96c:	02afa423          	sw	a0,40(t6)
     970:	00020517          	auipc	a0,0x20
     974:	b6550513          	addi	a0,a0,-1179 # 204d5 <end_regstate+0xd5>
     978:	845ff0ef          	jal	1bc <FN_WriteStr>
     97c:	00020f97          	auipc	t6,0x20
     980:	984f8f93          	addi	t6,t6,-1660 # 20300 <begin_regstate>
     984:	004fa083          	lw	ra,4(t6)
     988:	014fa283          	lw	t0,20(t6)
     98c:	018fa303          	lw	t1,24(t6)
     990:	020fa403          	lw	s0,32(t6)
     994:	028fa503          	lw	a0,40(t6)
     998:	00020f97          	auipc	t6,0x20
     99c:	968f8f93          	addi	t6,t6,-1688 # 20300 <begin_regstate>
     9a0:	001fa223          	sw	ra,4(t6)
     9a4:	005faa23          	sw	t0,20(t6)
     9a8:	006fac23          	sw	t1,24(t6)
     9ac:	028fa023          	sw	s0,32(t6)
     9b0:	02afa423          	sw	a0,40(t6)
     9b4:	00020517          	auipc	a0,0x20
     9b8:	b3050513          	addi	a0,a0,-1232 # 204e4 <end_regstate+0xe4>
     9bc:	801ff0ef          	jal	1bc <FN_WriteStr>
     9c0:	00020f97          	auipc	t6,0x20
     9c4:	940f8f93          	addi	t6,t6,-1728 # 20300 <begin_regstate>
     9c8:	004fa083          	lw	ra,4(t6)
     9cc:	014fa283          	lw	t0,20(t6)
     9d0:	018fa303          	lw	t1,24(t6)
     9d4:	020fa403          	lw	s0,32(t6)
     9d8:	028fa503          	lw	a0,40(t6)
     9dc:	00020f97          	auipc	t6,0x20
     9e0:	924f8f93          	addi	t6,t6,-1756 # 20300 <begin_regstate>
     9e4:	001fa223          	sw	ra,4(t6)
     9e8:	005faa23          	sw	t0,20(t6)
     9ec:	006fac23          	sw	t1,24(t6)
     9f0:	028fa023          	sw	s0,32(t6)
     9f4:	02afa423          	sw	a0,40(t6)
     9f8:	00020517          	auipc	a0,0x20
     9fc:	af450513          	addi	a0,a0,-1292 # 204ec <end_regstate+0xec>
     a00:	fbcff0ef          	jal	1bc <FN_WriteStr>
     a04:	00020f97          	auipc	t6,0x20
     a08:	8fcf8f93          	addi	t6,t6,-1796 # 20300 <begin_regstate>
     a0c:	004fa083          	lw	ra,4(t6)
     a10:	014fa283          	lw	t0,20(t6)
     a14:	018fa303          	lw	t1,24(t6)
     a18:	020fa403          	lw	s0,32(t6)
     a1c:	028fa503          	lw	a0,40(t6)
     a20:	00020f97          	auipc	t6,0x20
     a24:	8e0f8f93          	addi	t6,t6,-1824 # 20300 <begin_regstate>
     a28:	001fa223          	sw	ra,4(t6)
     a2c:	005faa23          	sw	t0,20(t6)
     a30:	006fac23          	sw	t1,24(t6)
     a34:	028fa023          	sw	s0,32(t6)
     a38:	02afa423          	sw	a0,40(t6)
     a3c:	00020517          	auipc	a0,0x20
     a40:	ab350513          	addi	a0,a0,-1357 # 204ef <end_regstate+0xef>
     a44:	f78ff0ef          	jal	1bc <FN_WriteStr>
     a48:	00020f97          	auipc	t6,0x20
     a4c:	8b8f8f93          	addi	t6,t6,-1864 # 20300 <begin_regstate>
     a50:	004fa083          	lw	ra,4(t6)
     a54:	014fa283          	lw	t0,20(t6)
     a58:	018fa303          	lw	t1,24(t6)
     a5c:	020fa403          	lw	s0,32(t6)
     a60:	028fa503          	lw	a0,40(t6)
     a64:	00020f97          	auipc	t6,0x20
     a68:	89cf8f93          	addi	t6,t6,-1892 # 20300 <begin_regstate>
     a6c:	001fa223          	sw	ra,4(t6)
     a70:	005faa23          	sw	t0,20(t6)
     a74:	006fac23          	sw	t1,24(t6)
     a78:	028fa023          	sw	s0,32(t6)
     a7c:	02afa423          	sw	a0,40(t6)
     a80:	00020517          	auipc	a0,0x20
     a84:	a7250513          	addi	a0,a0,-1422 # 204f2 <end_regstate+0xf2>
     a88:	f34ff0ef          	jal	1bc <FN_WriteStr>
     a8c:	00020f97          	auipc	t6,0x20
     a90:	874f8f93          	addi	t6,t6,-1932 # 20300 <begin_regstate>
     a94:	004fa083          	lw	ra,4(t6)
     a98:	014fa283          	lw	t0,20(t6)
     a9c:	018fa303          	lw	t1,24(t6)
     aa0:	020fa403          	lw	s0,32(t6)
     aa4:	028fa503          	lw	a0,40(t6)
     aa8:	00020f97          	auipc	t6,0x20
     aac:	858f8f93          	addi	t6,t6,-1960 # 20300 <begin_regstate>
     ab0:	001fa223          	sw	ra,4(t6)
     ab4:	005faa23          	sw	t0,20(t6)
     ab8:	006fac23          	sw	t1,24(t6)
     abc:	028fa023          	sw	s0,32(t6)
     ac0:	02afa423          	sw	a0,40(t6)
     ac4:	00020517          	auipc	a0,0x20
     ac8:	a3150513          	addi	a0,a0,-1487 # 204f5 <end_regstate+0xf5>
     acc:	ef0ff0ef          	jal	1bc <FN_WriteStr>
     ad0:	00020f97          	auipc	t6,0x20
     ad4:	830f8f93          	addi	t6,t6,-2000 # 20300 <begin_regstate>
     ad8:	004fa083          	lw	ra,4(t6)
     adc:	014fa283          	lw	t0,20(t6)
     ae0:	018fa303          	lw	t1,24(t6)
     ae4:	020fa403          	lw	s0,32(t6)
     ae8:	028fa503          	lw	a0,40(t6)
     aec:	00040513          	mv	a0,s0
     af0:	eecff0ef          	jal	1dc <FN_WriteA0>
     af4:	00020f97          	auipc	t6,0x20
     af8:	80cf8f93          	addi	t6,t6,-2036 # 20300 <begin_regstate>
     afc:	001fa223          	sw	ra,4(t6)
     b00:	005faa23          	sw	t0,20(t6)
     b04:	006fac23          	sw	t1,24(t6)
     b08:	028fa023          	sw	s0,32(t6)
     b0c:	02afa423          	sw	a0,40(t6)
     b10:	00020517          	auipc	a0,0x20
     b14:	9e750513          	addi	a0,a0,-1561 # 204f7 <end_regstate+0xf7>
     b18:	ea4ff0ef          	jal	1bc <FN_WriteStr>
     b1c:	0001ff97          	auipc	t6,0x1f
     b20:	7e4f8f93          	addi	t6,t6,2020 # 20300 <begin_regstate>
     b24:	004fa083          	lw	ra,4(t6)
     b28:	014fa283          	lw	t0,20(t6)
     b2c:	018fa303          	lw	t1,24(t6)
     b30:	020fa403          	lw	s0,32(t6)
     b34:	028fa503          	lw	a0,40(t6)
     b38:	0001ff97          	auipc	t6,0x1f
     b3c:	7c8f8f93          	addi	t6,t6,1992 # 20300 <begin_regstate>
     b40:	001fa223          	sw	ra,4(t6)
     b44:	005faa23          	sw	t0,20(t6)
     b48:	006fac23          	sw	t1,24(t6)
     b4c:	028fa023          	sw	s0,32(t6)
     b50:	02afa423          	sw	a0,40(t6)
     b54:	00020517          	auipc	a0,0x20
     b58:	9a950513          	addi	a0,a0,-1623 # 204fd <end_regstate+0xfd>
     b5c:	e60ff0ef          	jal	1bc <FN_WriteStr>
     b60:	0001ff97          	auipc	t6,0x1f
     b64:	7a0f8f93          	addi	t6,t6,1952 # 20300 <begin_regstate>
     b68:	004fa083          	lw	ra,4(t6)
     b6c:	014fa283          	lw	t0,20(t6)
     b70:	018fa303          	lw	t1,24(t6)
     b74:	020fa403          	lw	s0,32(t6)
     b78:	028fa503          	lw	a0,40(t6)
     b7c:	0001ff97          	auipc	t6,0x1f
     b80:	784f8f93          	addi	t6,t6,1924 # 20300 <begin_regstate>
     b84:	001fa223          	sw	ra,4(t6)
     b88:	005faa23          	sw	t0,20(t6)
     b8c:	006fac23          	sw	t1,24(t6)
     b90:	028fa023          	sw	s0,32(t6)
     b94:	02afa423          	sw	a0,40(t6)
     b98:	00020517          	auipc	a0,0x20
     b9c:	97050513          	addi	a0,a0,-1680 # 20508 <end_regstate+0x108>
     ba0:	e1cff0ef          	jal	1bc <FN_WriteStr>
     ba4:	0001ff97          	auipc	t6,0x1f
     ba8:	75cf8f93          	addi	t6,t6,1884 # 20300 <begin_regstate>
     bac:	004fa083          	lw	ra,4(t6)
     bb0:	014fa283          	lw	t0,20(t6)
     bb4:	018fa303          	lw	t1,24(t6)
     bb8:	020fa403          	lw	s0,32(t6)
     bbc:	028fa503          	lw	a0,40(t6)
     bc0:	06400193          	li	gp,100
     bc4:	0ff0000f          	fence
     bc8:	00018063          	beqz	gp,bc8 <FN_WriteA0_common+0x994>
     bcc:	00119193          	slli	gp,gp,0x1
     bd0:	0011e193          	ori	gp,gp,1
     bd4:	00000073          	ecall
     bd8:	0001f317          	auipc	t1,0x1f
     bdc:	72830313          	addi	t1,t1,1832 # 20300 <begin_regstate>
     be0:	00432083          	lw	ra,4(t1)
     be4:	01432283          	lw	t0,20(t1)
     be8:	01832303          	lw	t1,24(t1)
     bec:	02032403          	lw	s0,32(t1)
     bf0:	02832503          	lw	a0,40(t1)
     bf4:	00000e93          	li	t4,0
     bf8:	fff00713          	li	a4,-1
     bfc:	00ee8133          	add	sp,t4,a4
     c00:	0022a423          	sw	sp,8(t0)
     c04:	0001f317          	auipc	t1,0x1f
     c08:	6fc30313          	addi	t1,t1,1788 # 20300 <begin_regstate>
     c0c:	00132223          	sw	ra,4(t1)
     c10:	00532a23          	sw	t0,20(t1)
     c14:	00632c23          	sw	t1,24(t1)
     c18:	02832023          	sw	s0,32(t1)
     c1c:	02a32423          	sw	a0,40(t1)
     c20:	00010413          	mv	s0,sp
     c24:	fff00293          	li	t0,-1
     c28:	2c540663          	beq	s0,t0,ef4 <FN_WriteA0_common+0xcc0>
     c2c:	0001ff97          	auipc	t6,0x1f
     c30:	6d4f8f93          	addi	t6,t6,1748 # 20300 <begin_regstate>
     c34:	001fa223          	sw	ra,4(t6)
     c38:	005faa23          	sw	t0,20(t6)
     c3c:	006fac23          	sw	t1,24(t6)
     c40:	028fa023          	sw	s0,32(t6)
     c44:	02afa423          	sw	a0,40(t6)
     c48:	00020517          	auipc	a0,0x20
     c4c:	8c250513          	addi	a0,a0,-1854 # 2050a <end_regstate+0x10a>
     c50:	d6cff0ef          	jal	1bc <FN_WriteStr>
     c54:	0001ff97          	auipc	t6,0x1f
     c58:	6acf8f93          	addi	t6,t6,1708 # 20300 <begin_regstate>
     c5c:	004fa083          	lw	ra,4(t6)
     c60:	014fa283          	lw	t0,20(t6)
     c64:	018fa303          	lw	t1,24(t6)
     c68:	020fa403          	lw	s0,32(t6)
     c6c:	028fa503          	lw	a0,40(t6)
     c70:	0001ff97          	auipc	t6,0x1f
     c74:	690f8f93          	addi	t6,t6,1680 # 20300 <begin_regstate>
     c78:	001fa223          	sw	ra,4(t6)
     c7c:	005faa23          	sw	t0,20(t6)
     c80:	006fac23          	sw	t1,24(t6)
     c84:	028fa023          	sw	s0,32(t6)
     c88:	02afa423          	sw	a0,40(t6)
     c8c:	00020517          	auipc	a0,0x20
     c90:	89950513          	addi	a0,a0,-1895 # 20525 <end_regstate+0x125>
     c94:	d28ff0ef          	jal	1bc <FN_WriteStr>
     c98:	0001ff97          	auipc	t6,0x1f
     c9c:	668f8f93          	addi	t6,t6,1640 # 20300 <begin_regstate>
     ca0:	004fa083          	lw	ra,4(t6)
     ca4:	014fa283          	lw	t0,20(t6)
     ca8:	018fa303          	lw	t1,24(t6)
     cac:	020fa403          	lw	s0,32(t6)
     cb0:	028fa503          	lw	a0,40(t6)
     cb4:	0001ff97          	auipc	t6,0x1f
     cb8:	64cf8f93          	addi	t6,t6,1612 # 20300 <begin_regstate>
     cbc:	001fa223          	sw	ra,4(t6)
     cc0:	005faa23          	sw	t0,20(t6)
     cc4:	006fac23          	sw	t1,24(t6)
     cc8:	028fa023          	sw	s0,32(t6)
     ccc:	02afa423          	sw	a0,40(t6)
     cd0:	00020517          	auipc	a0,0x20
     cd4:	86450513          	addi	a0,a0,-1948 # 20534 <end_regstate+0x134>
     cd8:	ce4ff0ef          	jal	1bc <FN_WriteStr>
     cdc:	0001ff97          	auipc	t6,0x1f
     ce0:	624f8f93          	addi	t6,t6,1572 # 20300 <begin_regstate>
     ce4:	004fa083          	lw	ra,4(t6)
     ce8:	014fa283          	lw	t0,20(t6)
     cec:	018fa303          	lw	t1,24(t6)
     cf0:	020fa403          	lw	s0,32(t6)
     cf4:	028fa503          	lw	a0,40(t6)
     cf8:	0001ff97          	auipc	t6,0x1f
     cfc:	608f8f93          	addi	t6,t6,1544 # 20300 <begin_regstate>
     d00:	001fa223          	sw	ra,4(t6)
     d04:	005faa23          	sw	t0,20(t6)
     d08:	006fac23          	sw	t1,24(t6)
     d0c:	028fa023          	sw	s0,32(t6)
     d10:	02afa423          	sw	a0,40(t6)
     d14:	00020517          	auipc	a0,0x20
     d18:	82850513          	addi	a0,a0,-2008 # 2053c <end_regstate+0x13c>
     d1c:	ca0ff0ef          	jal	1bc <FN_WriteStr>
     d20:	0001ff97          	auipc	t6,0x1f
     d24:	5e0f8f93          	addi	t6,t6,1504 # 20300 <begin_regstate>
     d28:	004fa083          	lw	ra,4(t6)
     d2c:	014fa283          	lw	t0,20(t6)
     d30:	018fa303          	lw	t1,24(t6)
     d34:	020fa403          	lw	s0,32(t6)
     d38:	028fa503          	lw	a0,40(t6)
     d3c:	0001ff97          	auipc	t6,0x1f
     d40:	5c4f8f93          	addi	t6,t6,1476 # 20300 <begin_regstate>
     d44:	001fa223          	sw	ra,4(t6)
     d48:	005faa23          	sw	t0,20(t6)
     d4c:	006fac23          	sw	t1,24(t6)
     d50:	028fa023          	sw	s0,32(t6)
     d54:	02afa423          	sw	a0,40(t6)
     d58:	0001f517          	auipc	a0,0x1f
     d5c:	7e750513          	addi	a0,a0,2023 # 2053f <end_regstate+0x13f>
     d60:	c5cff0ef          	jal	1bc <FN_WriteStr>
     d64:	0001ff97          	auipc	t6,0x1f
     d68:	59cf8f93          	addi	t6,t6,1436 # 20300 <begin_regstate>
     d6c:	004fa083          	lw	ra,4(t6)
     d70:	014fa283          	lw	t0,20(t6)
     d74:	018fa303          	lw	t1,24(t6)
     d78:	020fa403          	lw	s0,32(t6)
     d7c:	028fa503          	lw	a0,40(t6)
     d80:	0001ff97          	auipc	t6,0x1f
     d84:	580f8f93          	addi	t6,t6,1408 # 20300 <begin_regstate>
     d88:	001fa223          	sw	ra,4(t6)
     d8c:	005faa23          	sw	t0,20(t6)
     d90:	006fac23          	sw	t1,24(t6)
     d94:	028fa023          	sw	s0,32(t6)
     d98:	02afa423          	sw	a0,40(t6)
     d9c:	0001f517          	auipc	a0,0x1f
     da0:	7a650513          	addi	a0,a0,1958 # 20542 <end_regstate+0x142>
     da4:	c18ff0ef          	jal	1bc <FN_WriteStr>
     da8:	0001ff97          	auipc	t6,0x1f
     dac:	558f8f93          	addi	t6,t6,1368 # 20300 <begin_regstate>
     db0:	004fa083          	lw	ra,4(t6)
     db4:	014fa283          	lw	t0,20(t6)
     db8:	018fa303          	lw	t1,24(t6)
     dbc:	020fa403          	lw	s0,32(t6)
     dc0:	028fa503          	lw	a0,40(t6)
     dc4:	0001ff97          	auipc	t6,0x1f
     dc8:	53cf8f93          	addi	t6,t6,1340 # 20300 <begin_regstate>
     dcc:	001fa223          	sw	ra,4(t6)
     dd0:	005faa23          	sw	t0,20(t6)
     dd4:	006fac23          	sw	t1,24(t6)
     dd8:	028fa023          	sw	s0,32(t6)
     ddc:	02afa423          	sw	a0,40(t6)
     de0:	0001f517          	auipc	a0,0x1f
     de4:	76550513          	addi	a0,a0,1893 # 20545 <end_regstate+0x145>
     de8:	bd4ff0ef          	jal	1bc <FN_WriteStr>
     dec:	0001ff97          	auipc	t6,0x1f
     df0:	514f8f93          	addi	t6,t6,1300 # 20300 <begin_regstate>
     df4:	004fa083          	lw	ra,4(t6)
     df8:	014fa283          	lw	t0,20(t6)
     dfc:	018fa303          	lw	t1,24(t6)
     e00:	020fa403          	lw	s0,32(t6)
     e04:	028fa503          	lw	a0,40(t6)
     e08:	00040513          	mv	a0,s0
     e0c:	bd0ff0ef          	jal	1dc <FN_WriteA0>
     e10:	0001ff97          	auipc	t6,0x1f
     e14:	4f0f8f93          	addi	t6,t6,1264 # 20300 <begin_regstate>
     e18:	001fa223          	sw	ra,4(t6)
     e1c:	005faa23          	sw	t0,20(t6)
     e20:	006fac23          	sw	t1,24(t6)
     e24:	028fa023          	sw	s0,32(t6)
     e28:	02afa423          	sw	a0,40(t6)
     e2c:	0001f517          	auipc	a0,0x1f
     e30:	71b50513          	addi	a0,a0,1819 # 20547 <end_regstate+0x147>
     e34:	b88ff0ef          	jal	1bc <FN_WriteStr>
     e38:	0001ff97          	auipc	t6,0x1f
     e3c:	4c8f8f93          	addi	t6,t6,1224 # 20300 <begin_regstate>
     e40:	004fa083          	lw	ra,4(t6)
     e44:	014fa283          	lw	t0,20(t6)
     e48:	018fa303          	lw	t1,24(t6)
     e4c:	020fa403          	lw	s0,32(t6)
     e50:	028fa503          	lw	a0,40(t6)
     e54:	0001ff97          	auipc	t6,0x1f
     e58:	4acf8f93          	addi	t6,t6,1196 # 20300 <begin_regstate>
     e5c:	001fa223          	sw	ra,4(t6)
     e60:	005faa23          	sw	t0,20(t6)
     e64:	006fac23          	sw	t1,24(t6)
     e68:	028fa023          	sw	s0,32(t6)
     e6c:	02afa423          	sw	a0,40(t6)
     e70:	0001f517          	auipc	a0,0x1f
     e74:	6dd50513          	addi	a0,a0,1757 # 2054d <end_regstate+0x14d>
     e78:	b44ff0ef          	jal	1bc <FN_WriteStr>
     e7c:	0001ff97          	auipc	t6,0x1f
     e80:	484f8f93          	addi	t6,t6,1156 # 20300 <begin_regstate>
     e84:	004fa083          	lw	ra,4(t6)
     e88:	014fa283          	lw	t0,20(t6)
     e8c:	018fa303          	lw	t1,24(t6)
     e90:	020fa403          	lw	s0,32(t6)
     e94:	028fa503          	lw	a0,40(t6)
     e98:	0001ff97          	auipc	t6,0x1f
     e9c:	468f8f93          	addi	t6,t6,1128 # 20300 <begin_regstate>
     ea0:	001fa223          	sw	ra,4(t6)
     ea4:	005faa23          	sw	t0,20(t6)
     ea8:	006fac23          	sw	t1,24(t6)
     eac:	028fa023          	sw	s0,32(t6)
     eb0:	02afa423          	sw	a0,40(t6)
     eb4:	0001f517          	auipc	a0,0x1f
     eb8:	6a450513          	addi	a0,a0,1700 # 20558 <end_regstate+0x158>
     ebc:	b00ff0ef          	jal	1bc <FN_WriteStr>
     ec0:	0001ff97          	auipc	t6,0x1f
     ec4:	440f8f93          	addi	t6,t6,1088 # 20300 <begin_regstate>
     ec8:	004fa083          	lw	ra,4(t6)
     ecc:	014fa283          	lw	t0,20(t6)
     ed0:	018fa303          	lw	t1,24(t6)
     ed4:	020fa403          	lw	s0,32(t6)
     ed8:	028fa503          	lw	a0,40(t6)
     edc:	06400193          	li	gp,100
     ee0:	0ff0000f          	fence
     ee4:	00018063          	beqz	gp,ee4 <FN_WriteA0_common+0xcb0>
     ee8:	00119193          	slli	gp,gp,0x1
     eec:	0011e193          	ori	gp,gp,1
     ef0:	00000073          	ecall
     ef4:	0001f317          	auipc	t1,0x1f
     ef8:	40c30313          	addi	t1,t1,1036 # 20300 <begin_regstate>
     efc:	00432083          	lw	ra,4(t1)
     f00:	01432283          	lw	t0,20(t1)
     f04:	01832303          	lw	t1,24(t1)
     f08:	02032403          	lw	s0,32(t1)
     f0c:	02832503          	lw	a0,40(t1)
     f10:	7ff00e13          	li	t3,2047
     f14:	fffff6b7          	lui	a3,0xfffff
     f18:	dcc68693          	addi	a3,a3,-564 # ffffedcc <_edata+0xfffddef2>
     f1c:	00de01b3          	add	gp,t3,a3
     f20:	0032a623          	sw	gp,12(t0)
     f24:	0001f317          	auipc	t1,0x1f
     f28:	3dc30313          	addi	t1,t1,988 # 20300 <begin_regstate>
     f2c:	00132223          	sw	ra,4(t1)
     f30:	00532a23          	sw	t0,20(t1)
     f34:	00632c23          	sw	t1,24(t1)
     f38:	02832023          	sw	s0,32(t1)
     f3c:	02a32423          	sw	a0,40(t1)
     f40:	00018413          	mv	s0,gp
     f44:	fffff2b7          	lui	t0,0xfffff
     f48:	5cb28293          	addi	t0,t0,1483 # fffff5cb <_edata+0xfffde6f1>
     f4c:	2c540663          	beq	s0,t0,1218 <FN_WriteA0_common+0xfe4>
     f50:	0001ff97          	auipc	t6,0x1f
     f54:	3b0f8f93          	addi	t6,t6,944 # 20300 <begin_regstate>
     f58:	001fa223          	sw	ra,4(t6)
     f5c:	005faa23          	sw	t0,20(t6)
     f60:	006fac23          	sw	t1,24(t6)
     f64:	028fa023          	sw	s0,32(t6)
     f68:	02afa423          	sw	a0,40(t6)
     f6c:	0001f517          	auipc	a0,0x1f
     f70:	5ee50513          	addi	a0,a0,1518 # 2055a <end_regstate+0x15a>
     f74:	a48ff0ef          	jal	1bc <FN_WriteStr>
     f78:	0001ff97          	auipc	t6,0x1f
     f7c:	388f8f93          	addi	t6,t6,904 # 20300 <begin_regstate>
     f80:	004fa083          	lw	ra,4(t6)
     f84:	014fa283          	lw	t0,20(t6)
     f88:	018fa303          	lw	t1,24(t6)
     f8c:	020fa403          	lw	s0,32(t6)
     f90:	028fa503          	lw	a0,40(t6)
     f94:	0001ff97          	auipc	t6,0x1f
     f98:	36cf8f93          	addi	t6,t6,876 # 20300 <begin_regstate>
     f9c:	001fa223          	sw	ra,4(t6)
     fa0:	005faa23          	sw	t0,20(t6)
     fa4:	006fac23          	sw	t1,24(t6)
     fa8:	028fa023          	sw	s0,32(t6)
     fac:	02afa423          	sw	a0,40(t6)
     fb0:	0001f517          	auipc	a0,0x1f
     fb4:	5c550513          	addi	a0,a0,1477 # 20575 <end_regstate+0x175>
     fb8:	a04ff0ef          	jal	1bc <FN_WriteStr>
     fbc:	0001ff97          	auipc	t6,0x1f
     fc0:	344f8f93          	addi	t6,t6,836 # 20300 <begin_regstate>
     fc4:	004fa083          	lw	ra,4(t6)
     fc8:	014fa283          	lw	t0,20(t6)
     fcc:	018fa303          	lw	t1,24(t6)
     fd0:	020fa403          	lw	s0,32(t6)
     fd4:	028fa503          	lw	a0,40(t6)
     fd8:	0001ff97          	auipc	t6,0x1f
     fdc:	328f8f93          	addi	t6,t6,808 # 20300 <begin_regstate>
     fe0:	001fa223          	sw	ra,4(t6)
     fe4:	005faa23          	sw	t0,20(t6)
     fe8:	006fac23          	sw	t1,24(t6)
     fec:	028fa023          	sw	s0,32(t6)
     ff0:	02afa423          	sw	a0,40(t6)
     ff4:	0001f517          	auipc	a0,0x1f
     ff8:	59050513          	addi	a0,a0,1424 # 20584 <end_regstate+0x184>
     ffc:	9c0ff0ef          	jal	1bc <FN_WriteStr>
    1000:	0001ff97          	auipc	t6,0x1f
    1004:	300f8f93          	addi	t6,t6,768 # 20300 <begin_regstate>
    1008:	004fa083          	lw	ra,4(t6)
    100c:	014fa283          	lw	t0,20(t6)
    1010:	018fa303          	lw	t1,24(t6)
    1014:	020fa403          	lw	s0,32(t6)
    1018:	028fa503          	lw	a0,40(t6)
    101c:	0001ff97          	auipc	t6,0x1f
    1020:	2e4f8f93          	addi	t6,t6,740 # 20300 <begin_regstate>
    1024:	001fa223          	sw	ra,4(t6)
    1028:	005faa23          	sw	t0,20(t6)
    102c:	006fac23          	sw	t1,24(t6)
    1030:	028fa023          	sw	s0,32(t6)
    1034:	02afa423          	sw	a0,40(t6)
    1038:	0001f517          	auipc	a0,0x1f
    103c:	55450513          	addi	a0,a0,1364 # 2058c <end_regstate+0x18c>
    1040:	97cff0ef          	jal	1bc <FN_WriteStr>
    1044:	0001ff97          	auipc	t6,0x1f
    1048:	2bcf8f93          	addi	t6,t6,700 # 20300 <begin_regstate>
    104c:	004fa083          	lw	ra,4(t6)
    1050:	014fa283          	lw	t0,20(t6)
    1054:	018fa303          	lw	t1,24(t6)
    1058:	020fa403          	lw	s0,32(t6)
    105c:	028fa503          	lw	a0,40(t6)
    1060:	0001ff97          	auipc	t6,0x1f
    1064:	2a0f8f93          	addi	t6,t6,672 # 20300 <begin_regstate>
    1068:	001fa223          	sw	ra,4(t6)
    106c:	005faa23          	sw	t0,20(t6)
    1070:	006fac23          	sw	t1,24(t6)
    1074:	028fa023          	sw	s0,32(t6)
    1078:	02afa423          	sw	a0,40(t6)
    107c:	0001f517          	auipc	a0,0x1f
    1080:	51350513          	addi	a0,a0,1299 # 2058f <end_regstate+0x18f>
    1084:	938ff0ef          	jal	1bc <FN_WriteStr>
    1088:	0001ff97          	auipc	t6,0x1f
    108c:	278f8f93          	addi	t6,t6,632 # 20300 <begin_regstate>
    1090:	004fa083          	lw	ra,4(t6)
    1094:	014fa283          	lw	t0,20(t6)
    1098:	018fa303          	lw	t1,24(t6)
    109c:	020fa403          	lw	s0,32(t6)
    10a0:	028fa503          	lw	a0,40(t6)
    10a4:	0001ff97          	auipc	t6,0x1f
    10a8:	25cf8f93          	addi	t6,t6,604 # 20300 <begin_regstate>
    10ac:	001fa223          	sw	ra,4(t6)
    10b0:	005faa23          	sw	t0,20(t6)
    10b4:	006fac23          	sw	t1,24(t6)
    10b8:	028fa023          	sw	s0,32(t6)
    10bc:	02afa423          	sw	a0,40(t6)
    10c0:	0001f517          	auipc	a0,0x1f
    10c4:	4d250513          	addi	a0,a0,1234 # 20592 <end_regstate+0x192>
    10c8:	8f4ff0ef          	jal	1bc <FN_WriteStr>
    10cc:	0001ff97          	auipc	t6,0x1f
    10d0:	234f8f93          	addi	t6,t6,564 # 20300 <begin_regstate>
    10d4:	004fa083          	lw	ra,4(t6)
    10d8:	014fa283          	lw	t0,20(t6)
    10dc:	018fa303          	lw	t1,24(t6)
    10e0:	020fa403          	lw	s0,32(t6)
    10e4:	028fa503          	lw	a0,40(t6)
    10e8:	0001ff97          	auipc	t6,0x1f
    10ec:	218f8f93          	addi	t6,t6,536 # 20300 <begin_regstate>
    10f0:	001fa223          	sw	ra,4(t6)
    10f4:	005faa23          	sw	t0,20(t6)
    10f8:	006fac23          	sw	t1,24(t6)
    10fc:	028fa023          	sw	s0,32(t6)
    1100:	02afa423          	sw	a0,40(t6)
    1104:	0001f517          	auipc	a0,0x1f
    1108:	49150513          	addi	a0,a0,1169 # 20595 <end_regstate+0x195>
    110c:	8b0ff0ef          	jal	1bc <FN_WriteStr>
    1110:	0001ff97          	auipc	t6,0x1f
    1114:	1f0f8f93          	addi	t6,t6,496 # 20300 <begin_regstate>
    1118:	004fa083          	lw	ra,4(t6)
    111c:	014fa283          	lw	t0,20(t6)
    1120:	018fa303          	lw	t1,24(t6)
    1124:	020fa403          	lw	s0,32(t6)
    1128:	028fa503          	lw	a0,40(t6)
    112c:	00040513          	mv	a0,s0
    1130:	8acff0ef          	jal	1dc <FN_WriteA0>
    1134:	0001ff97          	auipc	t6,0x1f
    1138:	1ccf8f93          	addi	t6,t6,460 # 20300 <begin_regstate>
    113c:	001fa223          	sw	ra,4(t6)
    1140:	005faa23          	sw	t0,20(t6)
    1144:	006fac23          	sw	t1,24(t6)
    1148:	028fa023          	sw	s0,32(t6)
    114c:	02afa423          	sw	a0,40(t6)
    1150:	0001f517          	auipc	a0,0x1f
    1154:	44750513          	addi	a0,a0,1095 # 20597 <end_regstate+0x197>
    1158:	864ff0ef          	jal	1bc <FN_WriteStr>
    115c:	0001ff97          	auipc	t6,0x1f
    1160:	1a4f8f93          	addi	t6,t6,420 # 20300 <begin_regstate>
    1164:	004fa083          	lw	ra,4(t6)
    1168:	014fa283          	lw	t0,20(t6)
    116c:	018fa303          	lw	t1,24(t6)
    1170:	020fa403          	lw	s0,32(t6)
    1174:	028fa503          	lw	a0,40(t6)
    1178:	0001ff97          	auipc	t6,0x1f
    117c:	188f8f93          	addi	t6,t6,392 # 20300 <begin_regstate>
    1180:	001fa223          	sw	ra,4(t6)
    1184:	005faa23          	sw	t0,20(t6)
    1188:	006fac23          	sw	t1,24(t6)
    118c:	028fa023          	sw	s0,32(t6)
    1190:	02afa423          	sw	a0,40(t6)
    1194:	0001f517          	auipc	a0,0x1f
    1198:	40950513          	addi	a0,a0,1033 # 2059d <end_regstate+0x19d>
    119c:	820ff0ef          	jal	1bc <FN_WriteStr>
    11a0:	0001ff97          	auipc	t6,0x1f
    11a4:	160f8f93          	addi	t6,t6,352 # 20300 <begin_regstate>
    11a8:	004fa083          	lw	ra,4(t6)
    11ac:	014fa283          	lw	t0,20(t6)
    11b0:	018fa303          	lw	t1,24(t6)
    11b4:	020fa403          	lw	s0,32(t6)
    11b8:	028fa503          	lw	a0,40(t6)
    11bc:	0001ff97          	auipc	t6,0x1f
    11c0:	144f8f93          	addi	t6,t6,324 # 20300 <begin_regstate>
    11c4:	001fa223          	sw	ra,4(t6)
    11c8:	005faa23          	sw	t0,20(t6)
    11cc:	006fac23          	sw	t1,24(t6)
    11d0:	028fa023          	sw	s0,32(t6)
    11d4:	02afa423          	sw	a0,40(t6)
    11d8:	0001f517          	auipc	a0,0x1f
    11dc:	3d050513          	addi	a0,a0,976 # 205a8 <end_regstate+0x1a8>
    11e0:	fddfe0ef          	jal	1bc <FN_WriteStr>
    11e4:	0001ff97          	auipc	t6,0x1f
    11e8:	11cf8f93          	addi	t6,t6,284 # 20300 <begin_regstate>
    11ec:	004fa083          	lw	ra,4(t6)
    11f0:	014fa283          	lw	t0,20(t6)
    11f4:	018fa303          	lw	t1,24(t6)
    11f8:	020fa403          	lw	s0,32(t6)
    11fc:	028fa503          	lw	a0,40(t6)
    1200:	06400193          	li	gp,100
    1204:	0ff0000f          	fence
    1208:	00018063          	beqz	gp,1208 <FN_WriteA0_common+0xfd4>
    120c:	00119193          	slli	gp,gp,0x1
    1210:	0011e193          	ori	gp,gp,1
    1214:	00000073          	ecall
    1218:	0001f317          	auipc	t1,0x1f
    121c:	0e830313          	addi	t1,t1,232 # 20300 <begin_regstate>
    1220:	00432083          	lw	ra,4(t1)
    1224:	01432283          	lw	t0,20(t1)
    1228:	01832303          	lw	t1,24(t1)
    122c:	02032403          	lw	s0,32(t1)
    1230:	02832503          	lw	a0,40(t1)
    1234:	00000d93          	li	s11,0
    1238:	80000637          	lui	a2,0x80000
    123c:	00cd8233          	add	tp,s11,a2
    1240:	0042a823          	sw	tp,16(t0)
    1244:	0001f317          	auipc	t1,0x1f
    1248:	0bc30313          	addi	t1,t1,188 # 20300 <begin_regstate>
    124c:	00132223          	sw	ra,4(t1)
    1250:	00532a23          	sw	t0,20(t1)
    1254:	00632c23          	sw	t1,24(t1)
    1258:	02832023          	sw	s0,32(t1)
    125c:	02a32423          	sw	a0,40(t1)
    1260:	00020413          	mv	s0,tp
    1264:	800002b7          	lui	t0,0x80000
    1268:	2c540663          	beq	s0,t0,1534 <FN_WriteA0_common+0x1300>
    126c:	0001ff97          	auipc	t6,0x1f
    1270:	094f8f93          	addi	t6,t6,148 # 20300 <begin_regstate>
    1274:	001fa223          	sw	ra,4(t6)
    1278:	005faa23          	sw	t0,20(t6)
    127c:	006fac23          	sw	t1,24(t6)
    1280:	028fa023          	sw	s0,32(t6)
    1284:	02afa423          	sw	a0,40(t6)
    1288:	0001f517          	auipc	a0,0x1f
    128c:	32250513          	addi	a0,a0,802 # 205aa <end_regstate+0x1aa>
    1290:	f2dfe0ef          	jal	1bc <FN_WriteStr>
    1294:	0001ff97          	auipc	t6,0x1f
    1298:	06cf8f93          	addi	t6,t6,108 # 20300 <begin_regstate>
    129c:	004fa083          	lw	ra,4(t6)
    12a0:	014fa283          	lw	t0,20(t6)
    12a4:	018fa303          	lw	t1,24(t6)
    12a8:	020fa403          	lw	s0,32(t6)
    12ac:	028fa503          	lw	a0,40(t6)
    12b0:	0001ff97          	auipc	t6,0x1f
    12b4:	050f8f93          	addi	t6,t6,80 # 20300 <begin_regstate>
    12b8:	001fa223          	sw	ra,4(t6)
    12bc:	005faa23          	sw	t0,20(t6)
    12c0:	006fac23          	sw	t1,24(t6)
    12c4:	028fa023          	sw	s0,32(t6)
    12c8:	02afa423          	sw	a0,40(t6)
    12cc:	0001f517          	auipc	a0,0x1f
    12d0:	2f950513          	addi	a0,a0,761 # 205c5 <end_regstate+0x1c5>
    12d4:	ee9fe0ef          	jal	1bc <FN_WriteStr>
    12d8:	0001ff97          	auipc	t6,0x1f
    12dc:	028f8f93          	addi	t6,t6,40 # 20300 <begin_regstate>
    12e0:	004fa083          	lw	ra,4(t6)
    12e4:	014fa283          	lw	t0,20(t6)
    12e8:	018fa303          	lw	t1,24(t6)
    12ec:	020fa403          	lw	s0,32(t6)
    12f0:	028fa503          	lw	a0,40(t6)
    12f4:	0001ff97          	auipc	t6,0x1f
    12f8:	00cf8f93          	addi	t6,t6,12 # 20300 <begin_regstate>
    12fc:	001fa223          	sw	ra,4(t6)
    1300:	005faa23          	sw	t0,20(t6)
    1304:	006fac23          	sw	t1,24(t6)
    1308:	028fa023          	sw	s0,32(t6)
    130c:	02afa423          	sw	a0,40(t6)
    1310:	0001f517          	auipc	a0,0x1f
    1314:	2c450513          	addi	a0,a0,708 # 205d4 <end_regstate+0x1d4>
    1318:	ea5fe0ef          	jal	1bc <FN_WriteStr>
    131c:	0001ff97          	auipc	t6,0x1f
    1320:	fe4f8f93          	addi	t6,t6,-28 # 20300 <begin_regstate>
    1324:	004fa083          	lw	ra,4(t6)
    1328:	014fa283          	lw	t0,20(t6)
    132c:	018fa303          	lw	t1,24(t6)
    1330:	020fa403          	lw	s0,32(t6)
    1334:	028fa503          	lw	a0,40(t6)
    1338:	0001ff97          	auipc	t6,0x1f
    133c:	fc8f8f93          	addi	t6,t6,-56 # 20300 <begin_regstate>
    1340:	001fa223          	sw	ra,4(t6)
    1344:	005faa23          	sw	t0,20(t6)
    1348:	006fac23          	sw	t1,24(t6)
    134c:	028fa023          	sw	s0,32(t6)
    1350:	02afa423          	sw	a0,40(t6)
    1354:	0001f517          	auipc	a0,0x1f
    1358:	28850513          	addi	a0,a0,648 # 205dc <end_regstate+0x1dc>
    135c:	e61fe0ef          	jal	1bc <FN_WriteStr>
    1360:	0001ff97          	auipc	t6,0x1f
    1364:	fa0f8f93          	addi	t6,t6,-96 # 20300 <begin_regstate>
    1368:	004fa083          	lw	ra,4(t6)
    136c:	014fa283          	lw	t0,20(t6)
    1370:	018fa303          	lw	t1,24(t6)
    1374:	020fa403          	lw	s0,32(t6)
    1378:	028fa503          	lw	a0,40(t6)
    137c:	0001ff97          	auipc	t6,0x1f
    1380:	f84f8f93          	addi	t6,t6,-124 # 20300 <begin_regstate>
    1384:	001fa223          	sw	ra,4(t6)
    1388:	005faa23          	sw	t0,20(t6)
    138c:	006fac23          	sw	t1,24(t6)
    1390:	028fa023          	sw	s0,32(t6)
    1394:	02afa423          	sw	a0,40(t6)
    1398:	0001f517          	auipc	a0,0x1f
    139c:	24750513          	addi	a0,a0,583 # 205df <end_regstate+0x1df>
    13a0:	e1dfe0ef          	jal	1bc <FN_WriteStr>
    13a4:	0001ff97          	auipc	t6,0x1f
    13a8:	f5cf8f93          	addi	t6,t6,-164 # 20300 <begin_regstate>
    13ac:	004fa083          	lw	ra,4(t6)
    13b0:	014fa283          	lw	t0,20(t6)
    13b4:	018fa303          	lw	t1,24(t6)
    13b8:	020fa403          	lw	s0,32(t6)
    13bc:	028fa503          	lw	a0,40(t6)
    13c0:	0001ff97          	auipc	t6,0x1f
    13c4:	f40f8f93          	addi	t6,t6,-192 # 20300 <begin_regstate>
    13c8:	001fa223          	sw	ra,4(t6)
    13cc:	005faa23          	sw	t0,20(t6)
    13d0:	006fac23          	sw	t1,24(t6)
    13d4:	028fa023          	sw	s0,32(t6)
    13d8:	02afa423          	sw	a0,40(t6)
    13dc:	0001f517          	auipc	a0,0x1f
    13e0:	20650513          	addi	a0,a0,518 # 205e2 <end_regstate+0x1e2>
    13e4:	dd9fe0ef          	jal	1bc <FN_WriteStr>
    13e8:	0001ff97          	auipc	t6,0x1f
    13ec:	f18f8f93          	addi	t6,t6,-232 # 20300 <begin_regstate>
    13f0:	004fa083          	lw	ra,4(t6)
    13f4:	014fa283          	lw	t0,20(t6)
    13f8:	018fa303          	lw	t1,24(t6)
    13fc:	020fa403          	lw	s0,32(t6)
    1400:	028fa503          	lw	a0,40(t6)
    1404:	0001ff97          	auipc	t6,0x1f
    1408:	efcf8f93          	addi	t6,t6,-260 # 20300 <begin_regstate>
    140c:	001fa223          	sw	ra,4(t6)
    1410:	005faa23          	sw	t0,20(t6)
    1414:	006fac23          	sw	t1,24(t6)
    1418:	028fa023          	sw	s0,32(t6)
    141c:	02afa423          	sw	a0,40(t6)
    1420:	0001f517          	auipc	a0,0x1f
    1424:	1c550513          	addi	a0,a0,453 # 205e5 <end_regstate+0x1e5>
    1428:	d95fe0ef          	jal	1bc <FN_WriteStr>
    142c:	0001ff97          	auipc	t6,0x1f
    1430:	ed4f8f93          	addi	t6,t6,-300 # 20300 <begin_regstate>
    1434:	004fa083          	lw	ra,4(t6)
    1438:	014fa283          	lw	t0,20(t6)
    143c:	018fa303          	lw	t1,24(t6)
    1440:	020fa403          	lw	s0,32(t6)
    1444:	028fa503          	lw	a0,40(t6)
    1448:	00040513          	mv	a0,s0
    144c:	d91fe0ef          	jal	1dc <FN_WriteA0>
    1450:	0001ff97          	auipc	t6,0x1f
    1454:	eb0f8f93          	addi	t6,t6,-336 # 20300 <begin_regstate>
    1458:	001fa223          	sw	ra,4(t6)
    145c:	005faa23          	sw	t0,20(t6)
    1460:	006fac23          	sw	t1,24(t6)
    1464:	028fa023          	sw	s0,32(t6)
    1468:	02afa423          	sw	a0,40(t6)
    146c:	0001f517          	auipc	a0,0x1f
    1470:	17b50513          	addi	a0,a0,379 # 205e7 <end_regstate+0x1e7>
    1474:	d49fe0ef          	jal	1bc <FN_WriteStr>
    1478:	0001ff97          	auipc	t6,0x1f
    147c:	e88f8f93          	addi	t6,t6,-376 # 20300 <begin_regstate>
    1480:	004fa083          	lw	ra,4(t6)
    1484:	014fa283          	lw	t0,20(t6)
    1488:	018fa303          	lw	t1,24(t6)
    148c:	020fa403          	lw	s0,32(t6)
    1490:	028fa503          	lw	a0,40(t6)
    1494:	0001ff97          	auipc	t6,0x1f
    1498:	e6cf8f93          	addi	t6,t6,-404 # 20300 <begin_regstate>
    149c:	001fa223          	sw	ra,4(t6)
    14a0:	005faa23          	sw	t0,20(t6)
    14a4:	006fac23          	sw	t1,24(t6)
    14a8:	028fa023          	sw	s0,32(t6)
    14ac:	02afa423          	sw	a0,40(t6)
    14b0:	0001f517          	auipc	a0,0x1f
    14b4:	13d50513          	addi	a0,a0,317 # 205ed <end_regstate+0x1ed>
    14b8:	d05fe0ef          	jal	1bc <FN_WriteStr>
    14bc:	0001ff97          	auipc	t6,0x1f
    14c0:	e44f8f93          	addi	t6,t6,-444 # 20300 <begin_regstate>
    14c4:	004fa083          	lw	ra,4(t6)
    14c8:	014fa283          	lw	t0,20(t6)
    14cc:	018fa303          	lw	t1,24(t6)
    14d0:	020fa403          	lw	s0,32(t6)
    14d4:	028fa503          	lw	a0,40(t6)
    14d8:	0001ff97          	auipc	t6,0x1f
    14dc:	e28f8f93          	addi	t6,t6,-472 # 20300 <begin_regstate>
    14e0:	001fa223          	sw	ra,4(t6)
    14e4:	005faa23          	sw	t0,20(t6)
    14e8:	006fac23          	sw	t1,24(t6)
    14ec:	028fa023          	sw	s0,32(t6)
    14f0:	02afa423          	sw	a0,40(t6)
    14f4:	0001f517          	auipc	a0,0x1f
    14f8:	10450513          	addi	a0,a0,260 # 205f8 <end_regstate+0x1f8>
    14fc:	cc1fe0ef          	jal	1bc <FN_WriteStr>
    1500:	0001ff97          	auipc	t6,0x1f
    1504:	e00f8f93          	addi	t6,t6,-512 # 20300 <begin_regstate>
    1508:	004fa083          	lw	ra,4(t6)
    150c:	014fa283          	lw	t0,20(t6)
    1510:	018fa303          	lw	t1,24(t6)
    1514:	020fa403          	lw	s0,32(t6)
    1518:	028fa503          	lw	a0,40(t6)
    151c:	06400193          	li	gp,100
    1520:	0ff0000f          	fence
    1524:	00018063          	beqz	gp,1524 <FN_WriteA0_common+0x12f0>
    1528:	00119193          	slli	gp,gp,0x1
    152c:	0011e193          	ori	gp,gp,1
    1530:	00000073          	ecall
    1534:	0001f317          	auipc	t1,0x1f
    1538:	dcc30313          	addi	t1,t1,-564 # 20300 <begin_regstate>
    153c:	00432083          	lw	ra,4(t1)
    1540:	01432283          	lw	t0,20(t1)
    1544:	01832303          	lw	t1,24(t1)
    1548:	02032403          	lw	s0,32(t1)
    154c:	02832503          	lw	a0,40(t1)
    1550:	0001ff97          	auipc	t6,0x1f
    1554:	db0f8f93          	addi	t6,t6,-592 # 20300 <begin_regstate>
    1558:	001fa223          	sw	ra,4(t6)
    155c:	005faa23          	sw	t0,20(t6)
    1560:	006fac23          	sw	t1,24(t6)
    1564:	028fa023          	sw	s0,32(t6)
    1568:	02afa423          	sw	a0,40(t6)
    156c:	0001f517          	auipc	a0,0x1f
    1570:	08e50513          	addi	a0,a0,142 # 205fa <end_regstate+0x1fa>
    1574:	c49fe0ef          	jal	1bc <FN_WriteStr>
    1578:	0001ff97          	auipc	t6,0x1f
    157c:	d88f8f93          	addi	t6,t6,-632 # 20300 <begin_regstate>
    1580:	004fa083          	lw	ra,4(t6)
    1584:	014fa283          	lw	t0,20(t6)
    1588:	018fa303          	lw	t1,24(t6)
    158c:	020fa403          	lw	s0,32(t6)
    1590:	028fa503          	lw	a0,40(t6)
    1594:	0001f097          	auipc	ra,0x1f
    1598:	c8008093          	addi	ra,ra,-896 # 20214 <test_2_res>
    159c:	00001d37          	lui	s10,0x1
    15a0:	800d0d13          	addi	s10,s10,-2048 # 800 <FN_WriteA0_common+0x5cc>
    15a4:	000015b7          	lui	a1,0x1
    15a8:	23458593          	addi	a1,a1,564 # 1234 <FN_WriteA0_common+0x1000>
    15ac:	00bd02b3          	add	t0,s10,a1
    15b0:	0050a023          	sw	t0,0(ra)
    15b4:	0001f117          	auipc	sp,0x1f
    15b8:	d4c10113          	addi	sp,sp,-692 # 20300 <begin_regstate>
    15bc:	00112223          	sw	ra,4(sp)
    15c0:	00512a23          	sw	t0,20(sp)
    15c4:	00612c23          	sw	t1,24(sp)
    15c8:	02812023          	sw	s0,32(sp)
    15cc:	02a12423          	sw	a0,40(sp)
    15d0:	00028413          	mv	s0,t0
    15d4:	000022b7          	lui	t0,0x2
    15d8:	a3428293          	addi	t0,t0,-1484 # 1a34 <FN_WriteA0_common+0x1800>
    15dc:	2c540663          	beq	s0,t0,18a8 <FN_WriteA0_common+0x1674>
    15e0:	0001ff97          	auipc	t6,0x1f
    15e4:	d20f8f93          	addi	t6,t6,-736 # 20300 <begin_regstate>
    15e8:	001fa223          	sw	ra,4(t6)
    15ec:	005faa23          	sw	t0,20(t6)
    15f0:	006fac23          	sw	t1,24(t6)
    15f4:	028fa023          	sw	s0,32(t6)
    15f8:	02afa423          	sw	a0,40(t6)
    15fc:	0001f517          	auipc	a0,0x1f
    1600:	00f50513          	addi	a0,a0,15 # 2060b <end_regstate+0x20b>
    1604:	bb9fe0ef          	jal	1bc <FN_WriteStr>
    1608:	0001ff97          	auipc	t6,0x1f
    160c:	cf8f8f93          	addi	t6,t6,-776 # 20300 <begin_regstate>
    1610:	004fa083          	lw	ra,4(t6)
    1614:	014fa283          	lw	t0,20(t6)
    1618:	018fa303          	lw	t1,24(t6)
    161c:	020fa403          	lw	s0,32(t6)
    1620:	028fa503          	lw	a0,40(t6)
    1624:	0001ff97          	auipc	t6,0x1f
    1628:	cdcf8f93          	addi	t6,t6,-804 # 20300 <begin_regstate>
    162c:	001fa223          	sw	ra,4(t6)
    1630:	005faa23          	sw	t0,20(t6)
    1634:	006fac23          	sw	t1,24(t6)
    1638:	028fa023          	sw	s0,32(t6)
    163c:	02afa423          	sw	a0,40(t6)
    1640:	0001f517          	auipc	a0,0x1f
    1644:	fe650513          	addi	a0,a0,-26 # 20626 <end_regstate+0x226>
    1648:	b75fe0ef          	jal	1bc <FN_WriteStr>
    164c:	0001ff97          	auipc	t6,0x1f
    1650:	cb4f8f93          	addi	t6,t6,-844 # 20300 <begin_regstate>
    1654:	004fa083          	lw	ra,4(t6)
    1658:	014fa283          	lw	t0,20(t6)
    165c:	018fa303          	lw	t1,24(t6)
    1660:	020fa403          	lw	s0,32(t6)
    1664:	028fa503          	lw	a0,40(t6)
    1668:	0001ff97          	auipc	t6,0x1f
    166c:	c98f8f93          	addi	t6,t6,-872 # 20300 <begin_regstate>
    1670:	001fa223          	sw	ra,4(t6)
    1674:	005faa23          	sw	t0,20(t6)
    1678:	006fac23          	sw	t1,24(t6)
    167c:	028fa023          	sw	s0,32(t6)
    1680:	02afa423          	sw	a0,40(t6)
    1684:	0001f517          	auipc	a0,0x1f
    1688:	fb150513          	addi	a0,a0,-79 # 20635 <end_regstate+0x235>
    168c:	b31fe0ef          	jal	1bc <FN_WriteStr>
    1690:	0001ff97          	auipc	t6,0x1f
    1694:	c70f8f93          	addi	t6,t6,-912 # 20300 <begin_regstate>
    1698:	004fa083          	lw	ra,4(t6)
    169c:	014fa283          	lw	t0,20(t6)
    16a0:	018fa303          	lw	t1,24(t6)
    16a4:	020fa403          	lw	s0,32(t6)
    16a8:	028fa503          	lw	a0,40(t6)
    16ac:	0001ff97          	auipc	t6,0x1f
    16b0:	c54f8f93          	addi	t6,t6,-940 # 20300 <begin_regstate>
    16b4:	001fa223          	sw	ra,4(t6)
    16b8:	005faa23          	sw	t0,20(t6)
    16bc:	006fac23          	sw	t1,24(t6)
    16c0:	028fa023          	sw	s0,32(t6)
    16c4:	02afa423          	sw	a0,40(t6)
    16c8:	0001f517          	auipc	a0,0x1f
    16cc:	f7550513          	addi	a0,a0,-139 # 2063d <end_regstate+0x23d>
    16d0:	aedfe0ef          	jal	1bc <FN_WriteStr>
    16d4:	0001ff97          	auipc	t6,0x1f
    16d8:	c2cf8f93          	addi	t6,t6,-980 # 20300 <begin_regstate>
    16dc:	004fa083          	lw	ra,4(t6)
    16e0:	014fa283          	lw	t0,20(t6)
    16e4:	018fa303          	lw	t1,24(t6)
    16e8:	020fa403          	lw	s0,32(t6)
    16ec:	028fa503          	lw	a0,40(t6)
    16f0:	0001ff97          	auipc	t6,0x1f
    16f4:	c10f8f93          	addi	t6,t6,-1008 # 20300 <begin_regstate>
    16f8:	001fa223          	sw	ra,4(t6)
    16fc:	005faa23          	sw	t0,20(t6)
    1700:	006fac23          	sw	t1,24(t6)
    1704:	028fa023          	sw	s0,32(t6)
    1708:	02afa423          	sw	a0,40(t6)
    170c:	0001f517          	auipc	a0,0x1f
    1710:	f3450513          	addi	a0,a0,-204 # 20640 <end_regstate+0x240>
    1714:	aa9fe0ef          	jal	1bc <FN_WriteStr>
    1718:	0001ff97          	auipc	t6,0x1f
    171c:	be8f8f93          	addi	t6,t6,-1048 # 20300 <begin_regstate>
    1720:	004fa083          	lw	ra,4(t6)
    1724:	014fa283          	lw	t0,20(t6)
    1728:	018fa303          	lw	t1,24(t6)
    172c:	020fa403          	lw	s0,32(t6)
    1730:	028fa503          	lw	a0,40(t6)
    1734:	0001ff97          	auipc	t6,0x1f
    1738:	bccf8f93          	addi	t6,t6,-1076 # 20300 <begin_regstate>
    173c:	001fa223          	sw	ra,4(t6)
    1740:	005faa23          	sw	t0,20(t6)
    1744:	006fac23          	sw	t1,24(t6)
    1748:	028fa023          	sw	s0,32(t6)
    174c:	02afa423          	sw	a0,40(t6)
    1750:	0001f517          	auipc	a0,0x1f
    1754:	ef350513          	addi	a0,a0,-269 # 20643 <end_regstate+0x243>
    1758:	a65fe0ef          	jal	1bc <FN_WriteStr>
    175c:	0001ff97          	auipc	t6,0x1f
    1760:	ba4f8f93          	addi	t6,t6,-1116 # 20300 <begin_regstate>
    1764:	004fa083          	lw	ra,4(t6)
    1768:	014fa283          	lw	t0,20(t6)
    176c:	018fa303          	lw	t1,24(t6)
    1770:	020fa403          	lw	s0,32(t6)
    1774:	028fa503          	lw	a0,40(t6)
    1778:	0001ff97          	auipc	t6,0x1f
    177c:	b88f8f93          	addi	t6,t6,-1144 # 20300 <begin_regstate>
    1780:	001fa223          	sw	ra,4(t6)
    1784:	005faa23          	sw	t0,20(t6)
    1788:	006fac23          	sw	t1,24(t6)
    178c:	028fa023          	sw	s0,32(t6)
    1790:	02afa423          	sw	a0,40(t6)
    1794:	0001f517          	auipc	a0,0x1f
    1798:	eb250513          	addi	a0,a0,-334 # 20646 <end_regstate+0x246>
    179c:	a21fe0ef          	jal	1bc <FN_WriteStr>
    17a0:	0001ff97          	auipc	t6,0x1f
    17a4:	b60f8f93          	addi	t6,t6,-1184 # 20300 <begin_regstate>
    17a8:	004fa083          	lw	ra,4(t6)
    17ac:	014fa283          	lw	t0,20(t6)
    17b0:	018fa303          	lw	t1,24(t6)
    17b4:	020fa403          	lw	s0,32(t6)
    17b8:	028fa503          	lw	a0,40(t6)
    17bc:	00040513          	mv	a0,s0
    17c0:	a1dfe0ef          	jal	1dc <FN_WriteA0>
    17c4:	0001ff97          	auipc	t6,0x1f
    17c8:	b3cf8f93          	addi	t6,t6,-1220 # 20300 <begin_regstate>
    17cc:	001fa223          	sw	ra,4(t6)
    17d0:	005faa23          	sw	t0,20(t6)
    17d4:	006fac23          	sw	t1,24(t6)
    17d8:	028fa023          	sw	s0,32(t6)
    17dc:	02afa423          	sw	a0,40(t6)
    17e0:	0001f517          	auipc	a0,0x1f
    17e4:	e6850513          	addi	a0,a0,-408 # 20648 <end_regstate+0x248>
    17e8:	9d5fe0ef          	jal	1bc <FN_WriteStr>
    17ec:	0001ff97          	auipc	t6,0x1f
    17f0:	b14f8f93          	addi	t6,t6,-1260 # 20300 <begin_regstate>
    17f4:	004fa083          	lw	ra,4(t6)
    17f8:	014fa283          	lw	t0,20(t6)
    17fc:	018fa303          	lw	t1,24(t6)
    1800:	020fa403          	lw	s0,32(t6)
    1804:	028fa503          	lw	a0,40(t6)
    1808:	0001ff97          	auipc	t6,0x1f
    180c:	af8f8f93          	addi	t6,t6,-1288 # 20300 <begin_regstate>
    1810:	001fa223          	sw	ra,4(t6)
    1814:	005faa23          	sw	t0,20(t6)
    1818:	006fac23          	sw	t1,24(t6)
    181c:	028fa023          	sw	s0,32(t6)
    1820:	02afa423          	sw	a0,40(t6)
    1824:	0001f517          	auipc	a0,0x1f
    1828:	e2a50513          	addi	a0,a0,-470 # 2064e <end_regstate+0x24e>
    182c:	991fe0ef          	jal	1bc <FN_WriteStr>
    1830:	0001ff97          	auipc	t6,0x1f
    1834:	ad0f8f93          	addi	t6,t6,-1328 # 20300 <begin_regstate>
    1838:	004fa083          	lw	ra,4(t6)
    183c:	014fa283          	lw	t0,20(t6)
    1840:	018fa303          	lw	t1,24(t6)
    1844:	020fa403          	lw	s0,32(t6)
    1848:	028fa503          	lw	a0,40(t6)
    184c:	0001ff97          	auipc	t6,0x1f
    1850:	ab4f8f93          	addi	t6,t6,-1356 # 20300 <begin_regstate>
    1854:	001fa223          	sw	ra,4(t6)
    1858:	005faa23          	sw	t0,20(t6)
    185c:	006fac23          	sw	t1,24(t6)
    1860:	028fa023          	sw	s0,32(t6)
    1864:	02afa423          	sw	a0,40(t6)
    1868:	0001f517          	auipc	a0,0x1f
    186c:	ded50513          	addi	a0,a0,-531 # 20655 <end_regstate+0x255>
    1870:	94dfe0ef          	jal	1bc <FN_WriteStr>
    1874:	0001ff97          	auipc	t6,0x1f
    1878:	a8cf8f93          	addi	t6,t6,-1396 # 20300 <begin_regstate>
    187c:	004fa083          	lw	ra,4(t6)
    1880:	014fa283          	lw	t0,20(t6)
    1884:	018fa303          	lw	t1,24(t6)
    1888:	020fa403          	lw	s0,32(t6)
    188c:	028fa503          	lw	a0,40(t6)
    1890:	06400193          	li	gp,100
    1894:	0ff0000f          	fence
    1898:	00018063          	beqz	gp,1898 <FN_WriteA0_common+0x1664>
    189c:	00119193          	slli	gp,gp,0x1
    18a0:	0011e193          	ori	gp,gp,1
    18a4:	00000073          	ecall
    18a8:	0001f117          	auipc	sp,0x1f
    18ac:	a5810113          	addi	sp,sp,-1448 # 20300 <begin_regstate>
    18b0:	00412083          	lw	ra,4(sp)
    18b4:	01412283          	lw	t0,20(sp)
    18b8:	01812303          	lw	t1,24(sp)
    18bc:	02012403          	lw	s0,32(sp)
    18c0:	02812503          	lw	a0,40(sp)
    18c4:	07654cb7          	lui	s9,0x7654
    18c8:	321c8c93          	addi	s9,s9,801 # 7654321 <_edata+0x7633447>
    18cc:	fff00513          	li	a0,-1
    18d0:	00ac8333          	add	t1,s9,a0
    18d4:	0060a223          	sw	t1,4(ra)
    18d8:	0001f117          	auipc	sp,0x1f
    18dc:	a2810113          	addi	sp,sp,-1496 # 20300 <begin_regstate>
    18e0:	00112223          	sw	ra,4(sp)
    18e4:	00512a23          	sw	t0,20(sp)
    18e8:	00612c23          	sw	t1,24(sp)
    18ec:	02812023          	sw	s0,32(sp)
    18f0:	02a12423          	sw	a0,40(sp)
    18f4:	00030413          	mv	s0,t1
    18f8:	076542b7          	lui	t0,0x7654
    18fc:	32028293          	addi	t0,t0,800 # 7654320 <_edata+0x7633446>
    1900:	2c540663          	beq	s0,t0,1bcc <FN_WriteA0_common+0x1998>
    1904:	0001ff97          	auipc	t6,0x1f
    1908:	9fcf8f93          	addi	t6,t6,-1540 # 20300 <begin_regstate>
    190c:	001fa223          	sw	ra,4(t6)
    1910:	005faa23          	sw	t0,20(t6)
    1914:	006fac23          	sw	t1,24(t6)
    1918:	028fa023          	sw	s0,32(t6)
    191c:	02afa423          	sw	a0,40(t6)
    1920:	0001f517          	auipc	a0,0x1f
    1924:	d3750513          	addi	a0,a0,-713 # 20657 <end_regstate+0x257>
    1928:	895fe0ef          	jal	1bc <FN_WriteStr>
    192c:	0001ff97          	auipc	t6,0x1f
    1930:	9d4f8f93          	addi	t6,t6,-1580 # 20300 <begin_regstate>
    1934:	004fa083          	lw	ra,4(t6)
    1938:	014fa283          	lw	t0,20(t6)
    193c:	018fa303          	lw	t1,24(t6)
    1940:	020fa403          	lw	s0,32(t6)
    1944:	028fa503          	lw	a0,40(t6)
    1948:	0001ff97          	auipc	t6,0x1f
    194c:	9b8f8f93          	addi	t6,t6,-1608 # 20300 <begin_regstate>
    1950:	001fa223          	sw	ra,4(t6)
    1954:	005faa23          	sw	t0,20(t6)
    1958:	006fac23          	sw	t1,24(t6)
    195c:	028fa023          	sw	s0,32(t6)
    1960:	02afa423          	sw	a0,40(t6)
    1964:	0001f517          	auipc	a0,0x1f
    1968:	d0e50513          	addi	a0,a0,-754 # 20672 <end_regstate+0x272>
    196c:	851fe0ef          	jal	1bc <FN_WriteStr>
    1970:	0001ff97          	auipc	t6,0x1f
    1974:	990f8f93          	addi	t6,t6,-1648 # 20300 <begin_regstate>
    1978:	004fa083          	lw	ra,4(t6)
    197c:	014fa283          	lw	t0,20(t6)
    1980:	018fa303          	lw	t1,24(t6)
    1984:	020fa403          	lw	s0,32(t6)
    1988:	028fa503          	lw	a0,40(t6)
    198c:	0001ff97          	auipc	t6,0x1f
    1990:	974f8f93          	addi	t6,t6,-1676 # 20300 <begin_regstate>
    1994:	001fa223          	sw	ra,4(t6)
    1998:	005faa23          	sw	t0,20(t6)
    199c:	006fac23          	sw	t1,24(t6)
    19a0:	028fa023          	sw	s0,32(t6)
    19a4:	02afa423          	sw	a0,40(t6)
    19a8:	0001f517          	auipc	a0,0x1f
    19ac:	cd950513          	addi	a0,a0,-807 # 20681 <end_regstate+0x281>
    19b0:	80dfe0ef          	jal	1bc <FN_WriteStr>
    19b4:	0001ff97          	auipc	t6,0x1f
    19b8:	94cf8f93          	addi	t6,t6,-1716 # 20300 <begin_regstate>
    19bc:	004fa083          	lw	ra,4(t6)
    19c0:	014fa283          	lw	t0,20(t6)
    19c4:	018fa303          	lw	t1,24(t6)
    19c8:	020fa403          	lw	s0,32(t6)
    19cc:	028fa503          	lw	a0,40(t6)
    19d0:	0001ff97          	auipc	t6,0x1f
    19d4:	930f8f93          	addi	t6,t6,-1744 # 20300 <begin_regstate>
    19d8:	001fa223          	sw	ra,4(t6)
    19dc:	005faa23          	sw	t0,20(t6)
    19e0:	006fac23          	sw	t1,24(t6)
    19e4:	028fa023          	sw	s0,32(t6)
    19e8:	02afa423          	sw	a0,40(t6)
    19ec:	0001f517          	auipc	a0,0x1f
    19f0:	c9d50513          	addi	a0,a0,-867 # 20689 <end_regstate+0x289>
    19f4:	fc8fe0ef          	jal	1bc <FN_WriteStr>
    19f8:	0001ff97          	auipc	t6,0x1f
    19fc:	908f8f93          	addi	t6,t6,-1784 # 20300 <begin_regstate>
    1a00:	004fa083          	lw	ra,4(t6)
    1a04:	014fa283          	lw	t0,20(t6)
    1a08:	018fa303          	lw	t1,24(t6)
    1a0c:	020fa403          	lw	s0,32(t6)
    1a10:	028fa503          	lw	a0,40(t6)
    1a14:	0001ff97          	auipc	t6,0x1f
    1a18:	8ecf8f93          	addi	t6,t6,-1812 # 20300 <begin_regstate>
    1a1c:	001fa223          	sw	ra,4(t6)
    1a20:	005faa23          	sw	t0,20(t6)
    1a24:	006fac23          	sw	t1,24(t6)
    1a28:	028fa023          	sw	s0,32(t6)
    1a2c:	02afa423          	sw	a0,40(t6)
    1a30:	0001f517          	auipc	a0,0x1f
    1a34:	c5c50513          	addi	a0,a0,-932 # 2068c <end_regstate+0x28c>
    1a38:	f84fe0ef          	jal	1bc <FN_WriteStr>
    1a3c:	0001ff97          	auipc	t6,0x1f
    1a40:	8c4f8f93          	addi	t6,t6,-1852 # 20300 <begin_regstate>
    1a44:	004fa083          	lw	ra,4(t6)
    1a48:	014fa283          	lw	t0,20(t6)
    1a4c:	018fa303          	lw	t1,24(t6)
    1a50:	020fa403          	lw	s0,32(t6)
    1a54:	028fa503          	lw	a0,40(t6)
    1a58:	0001ff97          	auipc	t6,0x1f
    1a5c:	8a8f8f93          	addi	t6,t6,-1880 # 20300 <begin_regstate>
    1a60:	001fa223          	sw	ra,4(t6)
    1a64:	005faa23          	sw	t0,20(t6)
    1a68:	006fac23          	sw	t1,24(t6)
    1a6c:	028fa023          	sw	s0,32(t6)
    1a70:	02afa423          	sw	a0,40(t6)
    1a74:	0001f517          	auipc	a0,0x1f
    1a78:	c1b50513          	addi	a0,a0,-997 # 2068f <end_regstate+0x28f>
    1a7c:	f40fe0ef          	jal	1bc <FN_WriteStr>
    1a80:	0001ff97          	auipc	t6,0x1f
    1a84:	880f8f93          	addi	t6,t6,-1920 # 20300 <begin_regstate>
    1a88:	004fa083          	lw	ra,4(t6)
    1a8c:	014fa283          	lw	t0,20(t6)
    1a90:	018fa303          	lw	t1,24(t6)
    1a94:	020fa403          	lw	s0,32(t6)
    1a98:	028fa503          	lw	a0,40(t6)
    1a9c:	0001ff97          	auipc	t6,0x1f
    1aa0:	864f8f93          	addi	t6,t6,-1948 # 20300 <begin_regstate>
    1aa4:	001fa223          	sw	ra,4(t6)
    1aa8:	005faa23          	sw	t0,20(t6)
    1aac:	006fac23          	sw	t1,24(t6)
    1ab0:	028fa023          	sw	s0,32(t6)
    1ab4:	02afa423          	sw	a0,40(t6)
    1ab8:	0001f517          	auipc	a0,0x1f
    1abc:	bda50513          	addi	a0,a0,-1062 # 20692 <end_regstate+0x292>
    1ac0:	efcfe0ef          	jal	1bc <FN_WriteStr>
    1ac4:	0001ff97          	auipc	t6,0x1f
    1ac8:	83cf8f93          	addi	t6,t6,-1988 # 20300 <begin_regstate>
    1acc:	004fa083          	lw	ra,4(t6)
    1ad0:	014fa283          	lw	t0,20(t6)
    1ad4:	018fa303          	lw	t1,24(t6)
    1ad8:	020fa403          	lw	s0,32(t6)
    1adc:	028fa503          	lw	a0,40(t6)
    1ae0:	00040513          	mv	a0,s0
    1ae4:	ef8fe0ef          	jal	1dc <FN_WriteA0>
    1ae8:	0001ff97          	auipc	t6,0x1f
    1aec:	818f8f93          	addi	t6,t6,-2024 # 20300 <begin_regstate>
    1af0:	001fa223          	sw	ra,4(t6)
    1af4:	005faa23          	sw	t0,20(t6)
    1af8:	006fac23          	sw	t1,24(t6)
    1afc:	028fa023          	sw	s0,32(t6)
    1b00:	02afa423          	sw	a0,40(t6)
    1b04:	0001f517          	auipc	a0,0x1f
    1b08:	b9050513          	addi	a0,a0,-1136 # 20694 <end_regstate+0x294>
    1b0c:	eb0fe0ef          	jal	1bc <FN_WriteStr>
    1b10:	0001ef97          	auipc	t6,0x1e
    1b14:	7f0f8f93          	addi	t6,t6,2032 # 20300 <begin_regstate>
    1b18:	004fa083          	lw	ra,4(t6)
    1b1c:	014fa283          	lw	t0,20(t6)
    1b20:	018fa303          	lw	t1,24(t6)
    1b24:	020fa403          	lw	s0,32(t6)
    1b28:	028fa503          	lw	a0,40(t6)
    1b2c:	0001ef97          	auipc	t6,0x1e
    1b30:	7d4f8f93          	addi	t6,t6,2004 # 20300 <begin_regstate>
    1b34:	001fa223          	sw	ra,4(t6)
    1b38:	005faa23          	sw	t0,20(t6)
    1b3c:	006fac23          	sw	t1,24(t6)
    1b40:	028fa023          	sw	s0,32(t6)
    1b44:	02afa423          	sw	a0,40(t6)
    1b48:	0001f517          	auipc	a0,0x1f
    1b4c:	b5250513          	addi	a0,a0,-1198 # 2069a <end_regstate+0x29a>
    1b50:	e6cfe0ef          	jal	1bc <FN_WriteStr>
    1b54:	0001ef97          	auipc	t6,0x1e
    1b58:	7acf8f93          	addi	t6,t6,1964 # 20300 <begin_regstate>
    1b5c:	004fa083          	lw	ra,4(t6)
    1b60:	014fa283          	lw	t0,20(t6)
    1b64:	018fa303          	lw	t1,24(t6)
    1b68:	020fa403          	lw	s0,32(t6)
    1b6c:	028fa503          	lw	a0,40(t6)
    1b70:	0001ef97          	auipc	t6,0x1e
    1b74:	790f8f93          	addi	t6,t6,1936 # 20300 <begin_regstate>
    1b78:	001fa223          	sw	ra,4(t6)
    1b7c:	005faa23          	sw	t0,20(t6)
    1b80:	006fac23          	sw	t1,24(t6)
    1b84:	028fa023          	sw	s0,32(t6)
    1b88:	02afa423          	sw	a0,40(t6)
    1b8c:	0001f517          	auipc	a0,0x1f
    1b90:	b1850513          	addi	a0,a0,-1256 # 206a4 <end_regstate+0x2a4>
    1b94:	e28fe0ef          	jal	1bc <FN_WriteStr>
    1b98:	0001ef97          	auipc	t6,0x1e
    1b9c:	768f8f93          	addi	t6,t6,1896 # 20300 <begin_regstate>
    1ba0:	004fa083          	lw	ra,4(t6)
    1ba4:	014fa283          	lw	t0,20(t6)
    1ba8:	018fa303          	lw	t1,24(t6)
    1bac:	020fa403          	lw	s0,32(t6)
    1bb0:	028fa503          	lw	a0,40(t6)
    1bb4:	06400193          	li	gp,100
    1bb8:	0ff0000f          	fence
    1bbc:	00018063          	beqz	gp,1bbc <FN_WriteA0_common+0x1988>
    1bc0:	00119193          	slli	gp,gp,0x1
    1bc4:	0011e193          	ori	gp,gp,1
    1bc8:	00000073          	ecall
    1bcc:	0001e117          	auipc	sp,0x1e
    1bd0:	73410113          	addi	sp,sp,1844 # 20300 <begin_regstate>
    1bd4:	00412083          	lw	ra,4(sp)
    1bd8:	01412283          	lw	t0,20(sp)
    1bdc:	01812303          	lw	t1,24(sp)
    1be0:	02012403          	lw	s0,32(sp)
    1be4:	02812503          	lw	a0,40(sp)
    1be8:	80000c37          	lui	s8,0x80000
    1bec:	fffc0c13          	addi	s8,s8,-1 # 7fffffff <_edata+0x7ffdf125>
    1bf0:	00100493          	li	s1,1
    1bf4:	009c03b3          	add	t2,s8,s1
    1bf8:	0070a423          	sw	t2,8(ra)
    1bfc:	0001e117          	auipc	sp,0x1e
    1c00:	70410113          	addi	sp,sp,1796 # 20300 <begin_regstate>
    1c04:	00112223          	sw	ra,4(sp)
    1c08:	00512a23          	sw	t0,20(sp)
    1c0c:	00612c23          	sw	t1,24(sp)
    1c10:	02812023          	sw	s0,32(sp)
    1c14:	02a12423          	sw	a0,40(sp)
    1c18:	00038413          	mv	s0,t2
    1c1c:	800002b7          	lui	t0,0x80000
    1c20:	2c540663          	beq	s0,t0,1eec <FN_WriteA0_common+0x1cb8>
    1c24:	0001ef97          	auipc	t6,0x1e
    1c28:	6dcf8f93          	addi	t6,t6,1756 # 20300 <begin_regstate>
    1c2c:	001fa223          	sw	ra,4(t6)
    1c30:	005faa23          	sw	t0,20(t6)
    1c34:	006fac23          	sw	t1,24(t6)
    1c38:	028fa023          	sw	s0,32(t6)
    1c3c:	02afa423          	sw	a0,40(t6)
    1c40:	0001f517          	auipc	a0,0x1f
    1c44:	a6650513          	addi	a0,a0,-1434 # 206a6 <end_regstate+0x2a6>
    1c48:	d74fe0ef          	jal	1bc <FN_WriteStr>
    1c4c:	0001ef97          	auipc	t6,0x1e
    1c50:	6b4f8f93          	addi	t6,t6,1716 # 20300 <begin_regstate>
    1c54:	004fa083          	lw	ra,4(t6)
    1c58:	014fa283          	lw	t0,20(t6)
    1c5c:	018fa303          	lw	t1,24(t6)
    1c60:	020fa403          	lw	s0,32(t6)
    1c64:	028fa503          	lw	a0,40(t6)
    1c68:	0001ef97          	auipc	t6,0x1e
    1c6c:	698f8f93          	addi	t6,t6,1688 # 20300 <begin_regstate>
    1c70:	001fa223          	sw	ra,4(t6)
    1c74:	005faa23          	sw	t0,20(t6)
    1c78:	006fac23          	sw	t1,24(t6)
    1c7c:	028fa023          	sw	s0,32(t6)
    1c80:	02afa423          	sw	a0,40(t6)
    1c84:	0001f517          	auipc	a0,0x1f
    1c88:	a3d50513          	addi	a0,a0,-1475 # 206c1 <end_regstate+0x2c1>
    1c8c:	d30fe0ef          	jal	1bc <FN_WriteStr>
    1c90:	0001ef97          	auipc	t6,0x1e
    1c94:	670f8f93          	addi	t6,t6,1648 # 20300 <begin_regstate>
    1c98:	004fa083          	lw	ra,4(t6)
    1c9c:	014fa283          	lw	t0,20(t6)
    1ca0:	018fa303          	lw	t1,24(t6)
    1ca4:	020fa403          	lw	s0,32(t6)
    1ca8:	028fa503          	lw	a0,40(t6)
    1cac:	0001ef97          	auipc	t6,0x1e
    1cb0:	654f8f93          	addi	t6,t6,1620 # 20300 <begin_regstate>
    1cb4:	001fa223          	sw	ra,4(t6)
    1cb8:	005faa23          	sw	t0,20(t6)
    1cbc:	006fac23          	sw	t1,24(t6)
    1cc0:	028fa023          	sw	s0,32(t6)
    1cc4:	02afa423          	sw	a0,40(t6)
    1cc8:	0001f517          	auipc	a0,0x1f
    1ccc:	a0850513          	addi	a0,a0,-1528 # 206d0 <end_regstate+0x2d0>
    1cd0:	cecfe0ef          	jal	1bc <FN_WriteStr>
    1cd4:	0001ef97          	auipc	t6,0x1e
    1cd8:	62cf8f93          	addi	t6,t6,1580 # 20300 <begin_regstate>
    1cdc:	004fa083          	lw	ra,4(t6)
    1ce0:	014fa283          	lw	t0,20(t6)
    1ce4:	018fa303          	lw	t1,24(t6)
    1ce8:	020fa403          	lw	s0,32(t6)
    1cec:	028fa503          	lw	a0,40(t6)
    1cf0:	0001ef97          	auipc	t6,0x1e
    1cf4:	610f8f93          	addi	t6,t6,1552 # 20300 <begin_regstate>
    1cf8:	001fa223          	sw	ra,4(t6)
    1cfc:	005faa23          	sw	t0,20(t6)
    1d00:	006fac23          	sw	t1,24(t6)
    1d04:	028fa023          	sw	s0,32(t6)
    1d08:	02afa423          	sw	a0,40(t6)
    1d0c:	0001f517          	auipc	a0,0x1f
    1d10:	9cc50513          	addi	a0,a0,-1588 # 206d8 <end_regstate+0x2d8>
    1d14:	ca8fe0ef          	jal	1bc <FN_WriteStr>
    1d18:	0001ef97          	auipc	t6,0x1e
    1d1c:	5e8f8f93          	addi	t6,t6,1512 # 20300 <begin_regstate>
    1d20:	004fa083          	lw	ra,4(t6)
    1d24:	014fa283          	lw	t0,20(t6)
    1d28:	018fa303          	lw	t1,24(t6)
    1d2c:	020fa403          	lw	s0,32(t6)
    1d30:	028fa503          	lw	a0,40(t6)
    1d34:	0001ef97          	auipc	t6,0x1e
    1d38:	5ccf8f93          	addi	t6,t6,1484 # 20300 <begin_regstate>
    1d3c:	001fa223          	sw	ra,4(t6)
    1d40:	005faa23          	sw	t0,20(t6)
    1d44:	006fac23          	sw	t1,24(t6)
    1d48:	028fa023          	sw	s0,32(t6)
    1d4c:	02afa423          	sw	a0,40(t6)
    1d50:	0001f517          	auipc	a0,0x1f
    1d54:	98b50513          	addi	a0,a0,-1653 # 206db <end_regstate+0x2db>
    1d58:	c64fe0ef          	jal	1bc <FN_WriteStr>
    1d5c:	0001ef97          	auipc	t6,0x1e
    1d60:	5a4f8f93          	addi	t6,t6,1444 # 20300 <begin_regstate>
    1d64:	004fa083          	lw	ra,4(t6)
    1d68:	014fa283          	lw	t0,20(t6)
    1d6c:	018fa303          	lw	t1,24(t6)
    1d70:	020fa403          	lw	s0,32(t6)
    1d74:	028fa503          	lw	a0,40(t6)
    1d78:	0001ef97          	auipc	t6,0x1e
    1d7c:	588f8f93          	addi	t6,t6,1416 # 20300 <begin_regstate>
    1d80:	001fa223          	sw	ra,4(t6)
    1d84:	005faa23          	sw	t0,20(t6)
    1d88:	006fac23          	sw	t1,24(t6)
    1d8c:	028fa023          	sw	s0,32(t6)
    1d90:	02afa423          	sw	a0,40(t6)
    1d94:	0001f517          	auipc	a0,0x1f
    1d98:	94a50513          	addi	a0,a0,-1718 # 206de <end_regstate+0x2de>
    1d9c:	c20fe0ef          	jal	1bc <FN_WriteStr>
    1da0:	0001ef97          	auipc	t6,0x1e
    1da4:	560f8f93          	addi	t6,t6,1376 # 20300 <begin_regstate>
    1da8:	004fa083          	lw	ra,4(t6)
    1dac:	014fa283          	lw	t0,20(t6)
    1db0:	018fa303          	lw	t1,24(t6)
    1db4:	020fa403          	lw	s0,32(t6)
    1db8:	028fa503          	lw	a0,40(t6)
    1dbc:	0001ef97          	auipc	t6,0x1e
    1dc0:	544f8f93          	addi	t6,t6,1348 # 20300 <begin_regstate>
    1dc4:	001fa223          	sw	ra,4(t6)
    1dc8:	005faa23          	sw	t0,20(t6)
    1dcc:	006fac23          	sw	t1,24(t6)
    1dd0:	028fa023          	sw	s0,32(t6)
    1dd4:	02afa423          	sw	a0,40(t6)
    1dd8:	0001f517          	auipc	a0,0x1f
    1ddc:	90950513          	addi	a0,a0,-1783 # 206e1 <end_regstate+0x2e1>
    1de0:	bdcfe0ef          	jal	1bc <FN_WriteStr>
    1de4:	0001ef97          	auipc	t6,0x1e
    1de8:	51cf8f93          	addi	t6,t6,1308 # 20300 <begin_regstate>
    1dec:	004fa083          	lw	ra,4(t6)
    1df0:	014fa283          	lw	t0,20(t6)
    1df4:	018fa303          	lw	t1,24(t6)
    1df8:	020fa403          	lw	s0,32(t6)
    1dfc:	028fa503          	lw	a0,40(t6)
    1e00:	00040513          	mv	a0,s0
    1e04:	bd8fe0ef          	jal	1dc <FN_WriteA0>
    1e08:	0001ef97          	auipc	t6,0x1e
    1e0c:	4f8f8f93          	addi	t6,t6,1272 # 20300 <begin_regstate>
    1e10:	001fa223          	sw	ra,4(t6)
    1e14:	005faa23          	sw	t0,20(t6)
    1e18:	006fac23          	sw	t1,24(t6)
    1e1c:	028fa023          	sw	s0,32(t6)
    1e20:	02afa423          	sw	a0,40(t6)
    1e24:	0001f517          	auipc	a0,0x1f
    1e28:	8bf50513          	addi	a0,a0,-1857 # 206e3 <end_regstate+0x2e3>
    1e2c:	b90fe0ef          	jal	1bc <FN_WriteStr>
    1e30:	0001ef97          	auipc	t6,0x1e
    1e34:	4d0f8f93          	addi	t6,t6,1232 # 20300 <begin_regstate>
    1e38:	004fa083          	lw	ra,4(t6)
    1e3c:	014fa283          	lw	t0,20(t6)
    1e40:	018fa303          	lw	t1,24(t6)
    1e44:	020fa403          	lw	s0,32(t6)
    1e48:	028fa503          	lw	a0,40(t6)
    1e4c:	0001ef97          	auipc	t6,0x1e
    1e50:	4b4f8f93          	addi	t6,t6,1204 # 20300 <begin_regstate>
    1e54:	001fa223          	sw	ra,4(t6)
    1e58:	005faa23          	sw	t0,20(t6)
    1e5c:	006fac23          	sw	t1,24(t6)
    1e60:	028fa023          	sw	s0,32(t6)
    1e64:	02afa423          	sw	a0,40(t6)
    1e68:	0001f517          	auipc	a0,0x1f
    1e6c:	88150513          	addi	a0,a0,-1919 # 206e9 <end_regstate+0x2e9>
    1e70:	b4cfe0ef          	jal	1bc <FN_WriteStr>
    1e74:	0001ef97          	auipc	t6,0x1e
    1e78:	48cf8f93          	addi	t6,t6,1164 # 20300 <begin_regstate>
    1e7c:	004fa083          	lw	ra,4(t6)
    1e80:	014fa283          	lw	t0,20(t6)
    1e84:	018fa303          	lw	t1,24(t6)
    1e88:	020fa403          	lw	s0,32(t6)
    1e8c:	028fa503          	lw	a0,40(t6)
    1e90:	0001ef97          	auipc	t6,0x1e
    1e94:	470f8f93          	addi	t6,t6,1136 # 20300 <begin_regstate>
    1e98:	001fa223          	sw	ra,4(t6)
    1e9c:	005faa23          	sw	t0,20(t6)
    1ea0:	006fac23          	sw	t1,24(t6)
    1ea4:	028fa023          	sw	s0,32(t6)
    1ea8:	02afa423          	sw	a0,40(t6)
    1eac:	0001f517          	auipc	a0,0x1f
    1eb0:	84850513          	addi	a0,a0,-1976 # 206f4 <end_regstate+0x2f4>
    1eb4:	b08fe0ef          	jal	1bc <FN_WriteStr>
    1eb8:	0001ef97          	auipc	t6,0x1e
    1ebc:	448f8f93          	addi	t6,t6,1096 # 20300 <begin_regstate>
    1ec0:	004fa083          	lw	ra,4(t6)
    1ec4:	014fa283          	lw	t0,20(t6)
    1ec8:	018fa303          	lw	t1,24(t6)
    1ecc:	020fa403          	lw	s0,32(t6)
    1ed0:	028fa503          	lw	a0,40(t6)
    1ed4:	06400193          	li	gp,100
    1ed8:	0ff0000f          	fence
    1edc:	00018063          	beqz	gp,1edc <FN_WriteA0_common+0x1ca8>
    1ee0:	00119193          	slli	gp,gp,0x1
    1ee4:	0011e193          	ori	gp,gp,1
    1ee8:	00000073          	ecall
    1eec:	0001e117          	auipc	sp,0x1e
    1ef0:	41410113          	addi	sp,sp,1044 # 20300 <begin_regstate>
    1ef4:	00412083          	lw	ra,4(sp)
    1ef8:	01412283          	lw	t0,20(sp)
    1efc:	01812303          	lw	t1,24(sp)
    1f00:	02012403          	lw	s0,32(sp)
    1f04:	02812503          	lw	a0,40(sp)
    1f08:	00100b93          	li	s7,1
    1f0c:	80000437          	lui	s0,0x80000
    1f10:	fff40413          	addi	s0,s0,-1 # 7fffffff <_edata+0x7ffdf125>
    1f14:	008b8433          	add	s0,s7,s0
    1f18:	0080a623          	sw	s0,12(ra)
    1f1c:	0001e117          	auipc	sp,0x1e
    1f20:	3e410113          	addi	sp,sp,996 # 20300 <begin_regstate>
    1f24:	00112223          	sw	ra,4(sp)
    1f28:	00512a23          	sw	t0,20(sp)
    1f2c:	00612c23          	sw	t1,24(sp)
    1f30:	02812023          	sw	s0,32(sp)
    1f34:	02a12423          	sw	a0,40(sp)
    1f38:	00040413          	mv	s0,s0
    1f3c:	800002b7          	lui	t0,0x80000
    1f40:	2c540663          	beq	s0,t0,220c <FN_WriteA0_common+0x1fd8>
    1f44:	0001ef97          	auipc	t6,0x1e
    1f48:	3bcf8f93          	addi	t6,t6,956 # 20300 <begin_regstate>
    1f4c:	001fa223          	sw	ra,4(t6)
    1f50:	005faa23          	sw	t0,20(t6)
    1f54:	006fac23          	sw	t1,24(t6)
    1f58:	028fa023          	sw	s0,32(t6)
    1f5c:	02afa423          	sw	a0,40(t6)
    1f60:	0001e517          	auipc	a0,0x1e
    1f64:	79650513          	addi	a0,a0,1942 # 206f6 <end_regstate+0x2f6>
    1f68:	a54fe0ef          	jal	1bc <FN_WriteStr>
    1f6c:	0001ef97          	auipc	t6,0x1e
    1f70:	394f8f93          	addi	t6,t6,916 # 20300 <begin_regstate>
    1f74:	004fa083          	lw	ra,4(t6)
    1f78:	014fa283          	lw	t0,20(t6)
    1f7c:	018fa303          	lw	t1,24(t6)
    1f80:	020fa403          	lw	s0,32(t6)
    1f84:	028fa503          	lw	a0,40(t6)
    1f88:	0001ef97          	auipc	t6,0x1e
    1f8c:	378f8f93          	addi	t6,t6,888 # 20300 <begin_regstate>
    1f90:	001fa223          	sw	ra,4(t6)
    1f94:	005faa23          	sw	t0,20(t6)
    1f98:	006fac23          	sw	t1,24(t6)
    1f9c:	028fa023          	sw	s0,32(t6)
    1fa0:	02afa423          	sw	a0,40(t6)
    1fa4:	0001e517          	auipc	a0,0x1e
    1fa8:	76d50513          	addi	a0,a0,1901 # 20711 <end_regstate+0x311>
    1fac:	a10fe0ef          	jal	1bc <FN_WriteStr>
    1fb0:	0001ef97          	auipc	t6,0x1e
    1fb4:	350f8f93          	addi	t6,t6,848 # 20300 <begin_regstate>
    1fb8:	004fa083          	lw	ra,4(t6)
    1fbc:	014fa283          	lw	t0,20(t6)
    1fc0:	018fa303          	lw	t1,24(t6)
    1fc4:	020fa403          	lw	s0,32(t6)
    1fc8:	028fa503          	lw	a0,40(t6)
    1fcc:	0001ef97          	auipc	t6,0x1e
    1fd0:	334f8f93          	addi	t6,t6,820 # 20300 <begin_regstate>
    1fd4:	001fa223          	sw	ra,4(t6)
    1fd8:	005faa23          	sw	t0,20(t6)
    1fdc:	006fac23          	sw	t1,24(t6)
    1fe0:	028fa023          	sw	s0,32(t6)
    1fe4:	02afa423          	sw	a0,40(t6)
    1fe8:	0001e517          	auipc	a0,0x1e
    1fec:	73850513          	addi	a0,a0,1848 # 20720 <end_regstate+0x320>
    1ff0:	9ccfe0ef          	jal	1bc <FN_WriteStr>
    1ff4:	0001ef97          	auipc	t6,0x1e
    1ff8:	30cf8f93          	addi	t6,t6,780 # 20300 <begin_regstate>
    1ffc:	004fa083          	lw	ra,4(t6)
    2000:	014fa283          	lw	t0,20(t6)
    2004:	018fa303          	lw	t1,24(t6)
    2008:	020fa403          	lw	s0,32(t6)
    200c:	028fa503          	lw	a0,40(t6)
    2010:	0001ef97          	auipc	t6,0x1e
    2014:	2f0f8f93          	addi	t6,t6,752 # 20300 <begin_regstate>
    2018:	001fa223          	sw	ra,4(t6)
    201c:	005faa23          	sw	t0,20(t6)
    2020:	006fac23          	sw	t1,24(t6)
    2024:	028fa023          	sw	s0,32(t6)
    2028:	02afa423          	sw	a0,40(t6)
    202c:	0001e517          	auipc	a0,0x1e
    2030:	6fc50513          	addi	a0,a0,1788 # 20728 <end_regstate+0x328>
    2034:	988fe0ef          	jal	1bc <FN_WriteStr>
    2038:	0001ef97          	auipc	t6,0x1e
    203c:	2c8f8f93          	addi	t6,t6,712 # 20300 <begin_regstate>
    2040:	004fa083          	lw	ra,4(t6)
    2044:	014fa283          	lw	t0,20(t6)
    2048:	018fa303          	lw	t1,24(t6)
    204c:	020fa403          	lw	s0,32(t6)
    2050:	028fa503          	lw	a0,40(t6)
    2054:	0001ef97          	auipc	t6,0x1e
    2058:	2acf8f93          	addi	t6,t6,684 # 20300 <begin_regstate>
    205c:	001fa223          	sw	ra,4(t6)
    2060:	005faa23          	sw	t0,20(t6)
    2064:	006fac23          	sw	t1,24(t6)
    2068:	028fa023          	sw	s0,32(t6)
    206c:	02afa423          	sw	a0,40(t6)
    2070:	0001e517          	auipc	a0,0x1e
    2074:	6bb50513          	addi	a0,a0,1723 # 2072b <end_regstate+0x32b>
    2078:	944fe0ef          	jal	1bc <FN_WriteStr>
    207c:	0001ef97          	auipc	t6,0x1e
    2080:	284f8f93          	addi	t6,t6,644 # 20300 <begin_regstate>
    2084:	004fa083          	lw	ra,4(t6)
    2088:	014fa283          	lw	t0,20(t6)
    208c:	018fa303          	lw	t1,24(t6)
    2090:	020fa403          	lw	s0,32(t6)
    2094:	028fa503          	lw	a0,40(t6)
    2098:	0001ef97          	auipc	t6,0x1e
    209c:	268f8f93          	addi	t6,t6,616 # 20300 <begin_regstate>
    20a0:	001fa223          	sw	ra,4(t6)
    20a4:	005faa23          	sw	t0,20(t6)
    20a8:	006fac23          	sw	t1,24(t6)
    20ac:	028fa023          	sw	s0,32(t6)
    20b0:	02afa423          	sw	a0,40(t6)
    20b4:	0001e517          	auipc	a0,0x1e
    20b8:	67a50513          	addi	a0,a0,1658 # 2072e <end_regstate+0x32e>
    20bc:	900fe0ef          	jal	1bc <FN_WriteStr>
    20c0:	0001ef97          	auipc	t6,0x1e
    20c4:	240f8f93          	addi	t6,t6,576 # 20300 <begin_regstate>
    20c8:	004fa083          	lw	ra,4(t6)
    20cc:	014fa283          	lw	t0,20(t6)
    20d0:	018fa303          	lw	t1,24(t6)
    20d4:	020fa403          	lw	s0,32(t6)
    20d8:	028fa503          	lw	a0,40(t6)
    20dc:	0001ef97          	auipc	t6,0x1e
    20e0:	224f8f93          	addi	t6,t6,548 # 20300 <begin_regstate>
    20e4:	001fa223          	sw	ra,4(t6)
    20e8:	005faa23          	sw	t0,20(t6)
    20ec:	006fac23          	sw	t1,24(t6)
    20f0:	028fa023          	sw	s0,32(t6)
    20f4:	02afa423          	sw	a0,40(t6)
    20f8:	0001e517          	auipc	a0,0x1e
    20fc:	63950513          	addi	a0,a0,1593 # 20731 <end_regstate+0x331>
    2100:	8bcfe0ef          	jal	1bc <FN_WriteStr>
    2104:	0001ef97          	auipc	t6,0x1e
    2108:	1fcf8f93          	addi	t6,t6,508 # 20300 <begin_regstate>
    210c:	004fa083          	lw	ra,4(t6)
    2110:	014fa283          	lw	t0,20(t6)
    2114:	018fa303          	lw	t1,24(t6)
    2118:	020fa403          	lw	s0,32(t6)
    211c:	028fa503          	lw	a0,40(t6)
    2120:	00040513          	mv	a0,s0
    2124:	8b8fe0ef          	jal	1dc <FN_WriteA0>
    2128:	0001ef97          	auipc	t6,0x1e
    212c:	1d8f8f93          	addi	t6,t6,472 # 20300 <begin_regstate>
    2130:	001fa223          	sw	ra,4(t6)
    2134:	005faa23          	sw	t0,20(t6)
    2138:	006fac23          	sw	t1,24(t6)
    213c:	028fa023          	sw	s0,32(t6)
    2140:	02afa423          	sw	a0,40(t6)
    2144:	0001e517          	auipc	a0,0x1e
    2148:	5ef50513          	addi	a0,a0,1519 # 20733 <end_regstate+0x333>
    214c:	870fe0ef          	jal	1bc <FN_WriteStr>
    2150:	0001ef97          	auipc	t6,0x1e
    2154:	1b0f8f93          	addi	t6,t6,432 # 20300 <begin_regstate>
    2158:	004fa083          	lw	ra,4(t6)
    215c:	014fa283          	lw	t0,20(t6)
    2160:	018fa303          	lw	t1,24(t6)
    2164:	020fa403          	lw	s0,32(t6)
    2168:	028fa503          	lw	a0,40(t6)
    216c:	0001ef97          	auipc	t6,0x1e
    2170:	194f8f93          	addi	t6,t6,404 # 20300 <begin_regstate>
    2174:	001fa223          	sw	ra,4(t6)
    2178:	005faa23          	sw	t0,20(t6)
    217c:	006fac23          	sw	t1,24(t6)
    2180:	028fa023          	sw	s0,32(t6)
    2184:	02afa423          	sw	a0,40(t6)
    2188:	0001e517          	auipc	a0,0x1e
    218c:	5b150513          	addi	a0,a0,1457 # 20739 <end_regstate+0x339>
    2190:	82cfe0ef          	jal	1bc <FN_WriteStr>
    2194:	0001ef97          	auipc	t6,0x1e
    2198:	16cf8f93          	addi	t6,t6,364 # 20300 <begin_regstate>
    219c:	004fa083          	lw	ra,4(t6)
    21a0:	014fa283          	lw	t0,20(t6)
    21a4:	018fa303          	lw	t1,24(t6)
    21a8:	020fa403          	lw	s0,32(t6)
    21ac:	028fa503          	lw	a0,40(t6)
    21b0:	0001ef97          	auipc	t6,0x1e
    21b4:	150f8f93          	addi	t6,t6,336 # 20300 <begin_regstate>
    21b8:	001fa223          	sw	ra,4(t6)
    21bc:	005faa23          	sw	t0,20(t6)
    21c0:	006fac23          	sw	t1,24(t6)
    21c4:	028fa023          	sw	s0,32(t6)
    21c8:	02afa423          	sw	a0,40(t6)
    21cc:	0001e517          	auipc	a0,0x1e
    21d0:	57850513          	addi	a0,a0,1400 # 20744 <end_regstate+0x344>
    21d4:	fe9fd0ef          	jal	1bc <FN_WriteStr>
    21d8:	0001ef97          	auipc	t6,0x1e
    21dc:	128f8f93          	addi	t6,t6,296 # 20300 <begin_regstate>
    21e0:	004fa083          	lw	ra,4(t6)
    21e4:	014fa283          	lw	t0,20(t6)
    21e8:	018fa303          	lw	t1,24(t6)
    21ec:	020fa403          	lw	s0,32(t6)
    21f0:	028fa503          	lw	a0,40(t6)
    21f4:	06400193          	li	gp,100
    21f8:	0ff0000f          	fence
    21fc:	00018063          	beqz	gp,21fc <FN_WriteA0_common+0x1fc8>
    2200:	00119193          	slli	gp,gp,0x1
    2204:	0011e193          	ori	gp,gp,1
    2208:	00000073          	ecall
    220c:	0001e117          	auipc	sp,0x1e
    2210:	0f410113          	addi	sp,sp,244 # 20300 <begin_regstate>
    2214:	00412083          	lw	ra,4(sp)
    2218:	01412283          	lw	t0,20(sp)
    221c:	01812303          	lw	t1,24(sp)
    2220:	02012403          	lw	s0,32(sp)
    2224:	02812503          	lw	a0,40(sp)
    2228:	fff00b13          	li	s6,-1
    222c:	076543b7          	lui	t2,0x7654
    2230:	32138393          	addi	t2,t2,801 # 7654321 <_edata+0x7633447>
    2234:	007b04b3          	add	s1,s6,t2
    2238:	0090a823          	sw	s1,16(ra)
    223c:	0001e117          	auipc	sp,0x1e
    2240:	0c410113          	addi	sp,sp,196 # 20300 <begin_regstate>
    2244:	00112223          	sw	ra,4(sp)
    2248:	00512a23          	sw	t0,20(sp)
    224c:	00612c23          	sw	t1,24(sp)
    2250:	02812023          	sw	s0,32(sp)
    2254:	02a12423          	sw	a0,40(sp)
    2258:	00048413          	mv	s0,s1
    225c:	076542b7          	lui	t0,0x7654
    2260:	32028293          	addi	t0,t0,800 # 7654320 <_edata+0x7633446>
    2264:	2c540663          	beq	s0,t0,2530 <FN_WriteA0_common+0x22fc>
    2268:	0001ef97          	auipc	t6,0x1e
    226c:	098f8f93          	addi	t6,t6,152 # 20300 <begin_regstate>
    2270:	001fa223          	sw	ra,4(t6)
    2274:	005faa23          	sw	t0,20(t6)
    2278:	006fac23          	sw	t1,24(t6)
    227c:	028fa023          	sw	s0,32(t6)
    2280:	02afa423          	sw	a0,40(t6)
    2284:	0001e517          	auipc	a0,0x1e
    2288:	4c250513          	addi	a0,a0,1218 # 20746 <end_regstate+0x346>
    228c:	f31fd0ef          	jal	1bc <FN_WriteStr>
    2290:	0001ef97          	auipc	t6,0x1e
    2294:	070f8f93          	addi	t6,t6,112 # 20300 <begin_regstate>
    2298:	004fa083          	lw	ra,4(t6)
    229c:	014fa283          	lw	t0,20(t6)
    22a0:	018fa303          	lw	t1,24(t6)
    22a4:	020fa403          	lw	s0,32(t6)
    22a8:	028fa503          	lw	a0,40(t6)
    22ac:	0001ef97          	auipc	t6,0x1e
    22b0:	054f8f93          	addi	t6,t6,84 # 20300 <begin_regstate>
    22b4:	001fa223          	sw	ra,4(t6)
    22b8:	005faa23          	sw	t0,20(t6)
    22bc:	006fac23          	sw	t1,24(t6)
    22c0:	028fa023          	sw	s0,32(t6)
    22c4:	02afa423          	sw	a0,40(t6)
    22c8:	0001e517          	auipc	a0,0x1e
    22cc:	49950513          	addi	a0,a0,1177 # 20761 <end_regstate+0x361>
    22d0:	eedfd0ef          	jal	1bc <FN_WriteStr>
    22d4:	0001ef97          	auipc	t6,0x1e
    22d8:	02cf8f93          	addi	t6,t6,44 # 20300 <begin_regstate>
    22dc:	004fa083          	lw	ra,4(t6)
    22e0:	014fa283          	lw	t0,20(t6)
    22e4:	018fa303          	lw	t1,24(t6)
    22e8:	020fa403          	lw	s0,32(t6)
    22ec:	028fa503          	lw	a0,40(t6)
    22f0:	0001ef97          	auipc	t6,0x1e
    22f4:	010f8f93          	addi	t6,t6,16 # 20300 <begin_regstate>
    22f8:	001fa223          	sw	ra,4(t6)
    22fc:	005faa23          	sw	t0,20(t6)
    2300:	006fac23          	sw	t1,24(t6)
    2304:	028fa023          	sw	s0,32(t6)
    2308:	02afa423          	sw	a0,40(t6)
    230c:	0001e517          	auipc	a0,0x1e
    2310:	46450513          	addi	a0,a0,1124 # 20770 <end_regstate+0x370>
    2314:	ea9fd0ef          	jal	1bc <FN_WriteStr>
    2318:	0001ef97          	auipc	t6,0x1e
    231c:	fe8f8f93          	addi	t6,t6,-24 # 20300 <begin_regstate>
    2320:	004fa083          	lw	ra,4(t6)
    2324:	014fa283          	lw	t0,20(t6)
    2328:	018fa303          	lw	t1,24(t6)
    232c:	020fa403          	lw	s0,32(t6)
    2330:	028fa503          	lw	a0,40(t6)
    2334:	0001ef97          	auipc	t6,0x1e
    2338:	fccf8f93          	addi	t6,t6,-52 # 20300 <begin_regstate>
    233c:	001fa223          	sw	ra,4(t6)
    2340:	005faa23          	sw	t0,20(t6)
    2344:	006fac23          	sw	t1,24(t6)
    2348:	028fa023          	sw	s0,32(t6)
    234c:	02afa423          	sw	a0,40(t6)
    2350:	0001e517          	auipc	a0,0x1e
    2354:	42850513          	addi	a0,a0,1064 # 20778 <end_regstate+0x378>
    2358:	e65fd0ef          	jal	1bc <FN_WriteStr>
    235c:	0001ef97          	auipc	t6,0x1e
    2360:	fa4f8f93          	addi	t6,t6,-92 # 20300 <begin_regstate>
    2364:	004fa083          	lw	ra,4(t6)
    2368:	014fa283          	lw	t0,20(t6)
    236c:	018fa303          	lw	t1,24(t6)
    2370:	020fa403          	lw	s0,32(t6)
    2374:	028fa503          	lw	a0,40(t6)
    2378:	0001ef97          	auipc	t6,0x1e
    237c:	f88f8f93          	addi	t6,t6,-120 # 20300 <begin_regstate>
    2380:	001fa223          	sw	ra,4(t6)
    2384:	005faa23          	sw	t0,20(t6)
    2388:	006fac23          	sw	t1,24(t6)
    238c:	028fa023          	sw	s0,32(t6)
    2390:	02afa423          	sw	a0,40(t6)
    2394:	0001e517          	auipc	a0,0x1e
    2398:	3e750513          	addi	a0,a0,999 # 2077b <end_regstate+0x37b>
    239c:	e21fd0ef          	jal	1bc <FN_WriteStr>
    23a0:	0001ef97          	auipc	t6,0x1e
    23a4:	f60f8f93          	addi	t6,t6,-160 # 20300 <begin_regstate>
    23a8:	004fa083          	lw	ra,4(t6)
    23ac:	014fa283          	lw	t0,20(t6)
    23b0:	018fa303          	lw	t1,24(t6)
    23b4:	020fa403          	lw	s0,32(t6)
    23b8:	028fa503          	lw	a0,40(t6)
    23bc:	0001ef97          	auipc	t6,0x1e
    23c0:	f44f8f93          	addi	t6,t6,-188 # 20300 <begin_regstate>
    23c4:	001fa223          	sw	ra,4(t6)
    23c8:	005faa23          	sw	t0,20(t6)
    23cc:	006fac23          	sw	t1,24(t6)
    23d0:	028fa023          	sw	s0,32(t6)
    23d4:	02afa423          	sw	a0,40(t6)
    23d8:	0001e517          	auipc	a0,0x1e
    23dc:	3a650513          	addi	a0,a0,934 # 2077e <end_regstate+0x37e>
    23e0:	dddfd0ef          	jal	1bc <FN_WriteStr>
    23e4:	0001ef97          	auipc	t6,0x1e
    23e8:	f1cf8f93          	addi	t6,t6,-228 # 20300 <begin_regstate>
    23ec:	004fa083          	lw	ra,4(t6)
    23f0:	014fa283          	lw	t0,20(t6)
    23f4:	018fa303          	lw	t1,24(t6)
    23f8:	020fa403          	lw	s0,32(t6)
    23fc:	028fa503          	lw	a0,40(t6)
    2400:	0001ef97          	auipc	t6,0x1e
    2404:	f00f8f93          	addi	t6,t6,-256 # 20300 <begin_regstate>
    2408:	001fa223          	sw	ra,4(t6)
    240c:	005faa23          	sw	t0,20(t6)
    2410:	006fac23          	sw	t1,24(t6)
    2414:	028fa023          	sw	s0,32(t6)
    2418:	02afa423          	sw	a0,40(t6)
    241c:	0001e517          	auipc	a0,0x1e
    2420:	36550513          	addi	a0,a0,869 # 20781 <end_regstate+0x381>
    2424:	d99fd0ef          	jal	1bc <FN_WriteStr>
    2428:	0001ef97          	auipc	t6,0x1e
    242c:	ed8f8f93          	addi	t6,t6,-296 # 20300 <begin_regstate>
    2430:	004fa083          	lw	ra,4(t6)
    2434:	014fa283          	lw	t0,20(t6)
    2438:	018fa303          	lw	t1,24(t6)
    243c:	020fa403          	lw	s0,32(t6)
    2440:	028fa503          	lw	a0,40(t6)
    2444:	00040513          	mv	a0,s0
    2448:	d95fd0ef          	jal	1dc <FN_WriteA0>
    244c:	0001ef97          	auipc	t6,0x1e
    2450:	eb4f8f93          	addi	t6,t6,-332 # 20300 <begin_regstate>
    2454:	001fa223          	sw	ra,4(t6)
    2458:	005faa23          	sw	t0,20(t6)
    245c:	006fac23          	sw	t1,24(t6)
    2460:	028fa023          	sw	s0,32(t6)
    2464:	02afa423          	sw	a0,40(t6)
    2468:	0001e517          	auipc	a0,0x1e
    246c:	31b50513          	addi	a0,a0,795 # 20783 <end_regstate+0x383>
    2470:	d4dfd0ef          	jal	1bc <FN_WriteStr>
    2474:	0001ef97          	auipc	t6,0x1e
    2478:	e8cf8f93          	addi	t6,t6,-372 # 20300 <begin_regstate>
    247c:	004fa083          	lw	ra,4(t6)
    2480:	014fa283          	lw	t0,20(t6)
    2484:	018fa303          	lw	t1,24(t6)
    2488:	020fa403          	lw	s0,32(t6)
    248c:	028fa503          	lw	a0,40(t6)
    2490:	0001ef97          	auipc	t6,0x1e
    2494:	e70f8f93          	addi	t6,t6,-400 # 20300 <begin_regstate>
    2498:	001fa223          	sw	ra,4(t6)
    249c:	005faa23          	sw	t0,20(t6)
    24a0:	006fac23          	sw	t1,24(t6)
    24a4:	028fa023          	sw	s0,32(t6)
    24a8:	02afa423          	sw	a0,40(t6)
    24ac:	0001e517          	auipc	a0,0x1e
    24b0:	2dd50513          	addi	a0,a0,733 # 20789 <end_regstate+0x389>
    24b4:	d09fd0ef          	jal	1bc <FN_WriteStr>
    24b8:	0001ef97          	auipc	t6,0x1e
    24bc:	e48f8f93          	addi	t6,t6,-440 # 20300 <begin_regstate>
    24c0:	004fa083          	lw	ra,4(t6)
    24c4:	014fa283          	lw	t0,20(t6)
    24c8:	018fa303          	lw	t1,24(t6)
    24cc:	020fa403          	lw	s0,32(t6)
    24d0:	028fa503          	lw	a0,40(t6)
    24d4:	0001ef97          	auipc	t6,0x1e
    24d8:	e2cf8f93          	addi	t6,t6,-468 # 20300 <begin_regstate>
    24dc:	001fa223          	sw	ra,4(t6)
    24e0:	005faa23          	sw	t0,20(t6)
    24e4:	006fac23          	sw	t1,24(t6)
    24e8:	028fa023          	sw	s0,32(t6)
    24ec:	02afa423          	sw	a0,40(t6)
    24f0:	0001e517          	auipc	a0,0x1e
    24f4:	2a350513          	addi	a0,a0,675 # 20793 <end_regstate+0x393>
    24f8:	cc5fd0ef          	jal	1bc <FN_WriteStr>
    24fc:	0001ef97          	auipc	t6,0x1e
    2500:	e04f8f93          	addi	t6,t6,-508 # 20300 <begin_regstate>
    2504:	004fa083          	lw	ra,4(t6)
    2508:	014fa283          	lw	t0,20(t6)
    250c:	018fa303          	lw	t1,24(t6)
    2510:	020fa403          	lw	s0,32(t6)
    2514:	028fa503          	lw	a0,40(t6)
    2518:	06400193          	li	gp,100
    251c:	0ff0000f          	fence
    2520:	00018063          	beqz	gp,2520 <FN_WriteA0_common+0x22ec>
    2524:	00119193          	slli	gp,gp,0x1
    2528:	0011e193          	ori	gp,gp,1
    252c:	00000073          	ecall
    2530:	0001e117          	auipc	sp,0x1e
    2534:	dd010113          	addi	sp,sp,-560 # 20300 <begin_regstate>
    2538:	00412083          	lw	ra,4(sp)
    253c:	01412283          	lw	t0,20(sp)
    2540:	01812303          	lw	t1,24(sp)
    2544:	02012403          	lw	s0,32(sp)
    2548:	02812503          	lw	a0,40(sp)
    254c:	0001ef97          	auipc	t6,0x1e
    2550:	db4f8f93          	addi	t6,t6,-588 # 20300 <begin_regstate>
    2554:	001fa223          	sw	ra,4(t6)
    2558:	005faa23          	sw	t0,20(t6)
    255c:	006fac23          	sw	t1,24(t6)
    2560:	028fa023          	sw	s0,32(t6)
    2564:	02afa423          	sw	a0,40(t6)
    2568:	0001e517          	auipc	a0,0x1e
    256c:	22d50513          	addi	a0,a0,557 # 20795 <end_regstate+0x395>
    2570:	c4dfd0ef          	jal	1bc <FN_WriteStr>
    2574:	0001ef97          	auipc	t6,0x1e
    2578:	d8cf8f93          	addi	t6,t6,-628 # 20300 <begin_regstate>
    257c:	004fa083          	lw	ra,4(t6)
    2580:	014fa283          	lw	t0,20(t6)
    2584:	018fa303          	lw	t1,24(t6)
    2588:	020fa403          	lw	s0,32(t6)
    258c:	028fa503          	lw	a0,40(t6)
    2590:	0001e097          	auipc	ra,0x1e
    2594:	c9808093          	addi	ra,ra,-872 # 20228 <test_3_res>
    2598:	00001ab7          	lui	s5,0x1
    259c:	234a8a93          	addi	s5,s5,564 # 1234 <FN_WriteA0_common+0x1000>
    25a0:	00001337          	lui	t1,0x1
    25a4:	80030313          	addi	t1,t1,-2048 # 800 <FN_WriteA0_common+0x5cc>
    25a8:	006a8533          	add	a0,s5,t1
    25ac:	00a0a023          	sw	a0,0(ra)
    25b0:	0001e397          	auipc	t2,0x1e
    25b4:	d5038393          	addi	t2,t2,-688 # 20300 <begin_regstate>
    25b8:	0013a223          	sw	ra,4(t2)
    25bc:	0053aa23          	sw	t0,20(t2)
    25c0:	0063ac23          	sw	t1,24(t2)
    25c4:	0283a023          	sw	s0,32(t2)
    25c8:	02a3a423          	sw	a0,40(t2)
    25cc:	00050413          	mv	s0,a0
    25d0:	000022b7          	lui	t0,0x2
    25d4:	a3428293          	addi	t0,t0,-1484 # 1a34 <FN_WriteA0_common+0x1800>
    25d8:	2c540663          	beq	s0,t0,28a4 <FN_WriteA0_common+0x2670>
    25dc:	0001ef97          	auipc	t6,0x1e
    25e0:	d24f8f93          	addi	t6,t6,-732 # 20300 <begin_regstate>
    25e4:	001fa223          	sw	ra,4(t6)
    25e8:	005faa23          	sw	t0,20(t6)
    25ec:	006fac23          	sw	t1,24(t6)
    25f0:	028fa023          	sw	s0,32(t6)
    25f4:	02afa423          	sw	a0,40(t6)
    25f8:	0001e517          	auipc	a0,0x1e
    25fc:	1ae50513          	addi	a0,a0,430 # 207a6 <end_regstate+0x3a6>
    2600:	bbdfd0ef          	jal	1bc <FN_WriteStr>
    2604:	0001ef97          	auipc	t6,0x1e
    2608:	cfcf8f93          	addi	t6,t6,-772 # 20300 <begin_regstate>
    260c:	004fa083          	lw	ra,4(t6)
    2610:	014fa283          	lw	t0,20(t6)
    2614:	018fa303          	lw	t1,24(t6)
    2618:	020fa403          	lw	s0,32(t6)
    261c:	028fa503          	lw	a0,40(t6)
    2620:	0001ef97          	auipc	t6,0x1e
    2624:	ce0f8f93          	addi	t6,t6,-800 # 20300 <begin_regstate>
    2628:	001fa223          	sw	ra,4(t6)
    262c:	005faa23          	sw	t0,20(t6)
    2630:	006fac23          	sw	t1,24(t6)
    2634:	028fa023          	sw	s0,32(t6)
    2638:	02afa423          	sw	a0,40(t6)
    263c:	0001e517          	auipc	a0,0x1e
    2640:	18550513          	addi	a0,a0,389 # 207c1 <end_regstate+0x3c1>
    2644:	b79fd0ef          	jal	1bc <FN_WriteStr>
    2648:	0001ef97          	auipc	t6,0x1e
    264c:	cb8f8f93          	addi	t6,t6,-840 # 20300 <begin_regstate>
    2650:	004fa083          	lw	ra,4(t6)
    2654:	014fa283          	lw	t0,20(t6)
    2658:	018fa303          	lw	t1,24(t6)
    265c:	020fa403          	lw	s0,32(t6)
    2660:	028fa503          	lw	a0,40(t6)
    2664:	0001ef97          	auipc	t6,0x1e
    2668:	c9cf8f93          	addi	t6,t6,-868 # 20300 <begin_regstate>
    266c:	001fa223          	sw	ra,4(t6)
    2670:	005faa23          	sw	t0,20(t6)
    2674:	006fac23          	sw	t1,24(t6)
    2678:	028fa023          	sw	s0,32(t6)
    267c:	02afa423          	sw	a0,40(t6)
    2680:	0001e517          	auipc	a0,0x1e
    2684:	15050513          	addi	a0,a0,336 # 207d0 <end_regstate+0x3d0>
    2688:	b35fd0ef          	jal	1bc <FN_WriteStr>
    268c:	0001ef97          	auipc	t6,0x1e
    2690:	c74f8f93          	addi	t6,t6,-908 # 20300 <begin_regstate>
    2694:	004fa083          	lw	ra,4(t6)
    2698:	014fa283          	lw	t0,20(t6)
    269c:	018fa303          	lw	t1,24(t6)
    26a0:	020fa403          	lw	s0,32(t6)
    26a4:	028fa503          	lw	a0,40(t6)
    26a8:	0001ef97          	auipc	t6,0x1e
    26ac:	c58f8f93          	addi	t6,t6,-936 # 20300 <begin_regstate>
    26b0:	001fa223          	sw	ra,4(t6)
    26b4:	005faa23          	sw	t0,20(t6)
    26b8:	006fac23          	sw	t1,24(t6)
    26bc:	028fa023          	sw	s0,32(t6)
    26c0:	02afa423          	sw	a0,40(t6)
    26c4:	0001e517          	auipc	a0,0x1e
    26c8:	11450513          	addi	a0,a0,276 # 207d8 <end_regstate+0x3d8>
    26cc:	af1fd0ef          	jal	1bc <FN_WriteStr>
    26d0:	0001ef97          	auipc	t6,0x1e
    26d4:	c30f8f93          	addi	t6,t6,-976 # 20300 <begin_regstate>
    26d8:	004fa083          	lw	ra,4(t6)
    26dc:	014fa283          	lw	t0,20(t6)
    26e0:	018fa303          	lw	t1,24(t6)
    26e4:	020fa403          	lw	s0,32(t6)
    26e8:	028fa503          	lw	a0,40(t6)
    26ec:	0001ef97          	auipc	t6,0x1e
    26f0:	c14f8f93          	addi	t6,t6,-1004 # 20300 <begin_regstate>
    26f4:	001fa223          	sw	ra,4(t6)
    26f8:	005faa23          	sw	t0,20(t6)
    26fc:	006fac23          	sw	t1,24(t6)
    2700:	028fa023          	sw	s0,32(t6)
    2704:	02afa423          	sw	a0,40(t6)
    2708:	0001e517          	auipc	a0,0x1e
    270c:	0d350513          	addi	a0,a0,211 # 207db <end_regstate+0x3db>
    2710:	aadfd0ef          	jal	1bc <FN_WriteStr>
    2714:	0001ef97          	auipc	t6,0x1e
    2718:	becf8f93          	addi	t6,t6,-1044 # 20300 <begin_regstate>
    271c:	004fa083          	lw	ra,4(t6)
    2720:	014fa283          	lw	t0,20(t6)
    2724:	018fa303          	lw	t1,24(t6)
    2728:	020fa403          	lw	s0,32(t6)
    272c:	028fa503          	lw	a0,40(t6)
    2730:	0001ef97          	auipc	t6,0x1e
    2734:	bd0f8f93          	addi	t6,t6,-1072 # 20300 <begin_regstate>
    2738:	001fa223          	sw	ra,4(t6)
    273c:	005faa23          	sw	t0,20(t6)
    2740:	006fac23          	sw	t1,24(t6)
    2744:	028fa023          	sw	s0,32(t6)
    2748:	02afa423          	sw	a0,40(t6)
    274c:	0001e517          	auipc	a0,0x1e
    2750:	09250513          	addi	a0,a0,146 # 207de <end_regstate+0x3de>
    2754:	a69fd0ef          	jal	1bc <FN_WriteStr>
    2758:	0001ef97          	auipc	t6,0x1e
    275c:	ba8f8f93          	addi	t6,t6,-1112 # 20300 <begin_regstate>
    2760:	004fa083          	lw	ra,4(t6)
    2764:	014fa283          	lw	t0,20(t6)
    2768:	018fa303          	lw	t1,24(t6)
    276c:	020fa403          	lw	s0,32(t6)
    2770:	028fa503          	lw	a0,40(t6)
    2774:	0001ef97          	auipc	t6,0x1e
    2778:	b8cf8f93          	addi	t6,t6,-1140 # 20300 <begin_regstate>
    277c:	001fa223          	sw	ra,4(t6)
    2780:	005faa23          	sw	t0,20(t6)
    2784:	006fac23          	sw	t1,24(t6)
    2788:	028fa023          	sw	s0,32(t6)
    278c:	02afa423          	sw	a0,40(t6)
    2790:	0001e517          	auipc	a0,0x1e
    2794:	05250513          	addi	a0,a0,82 # 207e2 <end_regstate+0x3e2>
    2798:	a25fd0ef          	jal	1bc <FN_WriteStr>
    279c:	0001ef97          	auipc	t6,0x1e
    27a0:	b64f8f93          	addi	t6,t6,-1180 # 20300 <begin_regstate>
    27a4:	004fa083          	lw	ra,4(t6)
    27a8:	014fa283          	lw	t0,20(t6)
    27ac:	018fa303          	lw	t1,24(t6)
    27b0:	020fa403          	lw	s0,32(t6)
    27b4:	028fa503          	lw	a0,40(t6)
    27b8:	00040513          	mv	a0,s0
    27bc:	a21fd0ef          	jal	1dc <FN_WriteA0>
    27c0:	0001ef97          	auipc	t6,0x1e
    27c4:	b40f8f93          	addi	t6,t6,-1216 # 20300 <begin_regstate>
    27c8:	001fa223          	sw	ra,4(t6)
    27cc:	005faa23          	sw	t0,20(t6)
    27d0:	006fac23          	sw	t1,24(t6)
    27d4:	028fa023          	sw	s0,32(t6)
    27d8:	02afa423          	sw	a0,40(t6)
    27dc:	0001e517          	auipc	a0,0x1e
    27e0:	00850513          	addi	a0,a0,8 # 207e4 <end_regstate+0x3e4>
    27e4:	9d9fd0ef          	jal	1bc <FN_WriteStr>
    27e8:	0001ef97          	auipc	t6,0x1e
    27ec:	b18f8f93          	addi	t6,t6,-1256 # 20300 <begin_regstate>
    27f0:	004fa083          	lw	ra,4(t6)
    27f4:	014fa283          	lw	t0,20(t6)
    27f8:	018fa303          	lw	t1,24(t6)
    27fc:	020fa403          	lw	s0,32(t6)
    2800:	028fa503          	lw	a0,40(t6)
    2804:	0001ef97          	auipc	t6,0x1e
    2808:	afcf8f93          	addi	t6,t6,-1284 # 20300 <begin_regstate>
    280c:	001fa223          	sw	ra,4(t6)
    2810:	005faa23          	sw	t0,20(t6)
    2814:	006fac23          	sw	t1,24(t6)
    2818:	028fa023          	sw	s0,32(t6)
    281c:	02afa423          	sw	a0,40(t6)
    2820:	0001e517          	auipc	a0,0x1e
    2824:	fca50513          	addi	a0,a0,-54 # 207ea <end_regstate+0x3ea>
    2828:	995fd0ef          	jal	1bc <FN_WriteStr>
    282c:	0001ef97          	auipc	t6,0x1e
    2830:	ad4f8f93          	addi	t6,t6,-1324 # 20300 <begin_regstate>
    2834:	004fa083          	lw	ra,4(t6)
    2838:	014fa283          	lw	t0,20(t6)
    283c:	018fa303          	lw	t1,24(t6)
    2840:	020fa403          	lw	s0,32(t6)
    2844:	028fa503          	lw	a0,40(t6)
    2848:	0001ef97          	auipc	t6,0x1e
    284c:	ab8f8f93          	addi	t6,t6,-1352 # 20300 <begin_regstate>
    2850:	001fa223          	sw	ra,4(t6)
    2854:	005faa23          	sw	t0,20(t6)
    2858:	006fac23          	sw	t1,24(t6)
    285c:	028fa023          	sw	s0,32(t6)
    2860:	02afa423          	sw	a0,40(t6)
    2864:	0001e517          	auipc	a0,0x1e
    2868:	f8d50513          	addi	a0,a0,-115 # 207f1 <end_regstate+0x3f1>
    286c:	951fd0ef          	jal	1bc <FN_WriteStr>
    2870:	0001ef97          	auipc	t6,0x1e
    2874:	a90f8f93          	addi	t6,t6,-1392 # 20300 <begin_regstate>
    2878:	004fa083          	lw	ra,4(t6)
    287c:	014fa283          	lw	t0,20(t6)
    2880:	018fa303          	lw	t1,24(t6)
    2884:	020fa403          	lw	s0,32(t6)
    2888:	028fa503          	lw	a0,40(t6)
    288c:	06400193          	li	gp,100
    2890:	0ff0000f          	fence
    2894:	00018063          	beqz	gp,2894 <FN_WriteA0_common+0x2660>
    2898:	00119193          	slli	gp,gp,0x1
    289c:	0011e193          	ori	gp,gp,1
    28a0:	00000073          	ecall
    28a4:	0001e397          	auipc	t2,0x1e
    28a8:	a5c38393          	addi	t2,t2,-1444 # 20300 <begin_regstate>
    28ac:	0043a083          	lw	ra,4(t2)
    28b0:	0143a283          	lw	t0,20(t2)
    28b4:	0183a303          	lw	t1,24(t2)
    28b8:	0203a403          	lw	s0,32(t2)
    28bc:	0283a503          	lw	a0,40(t2)
    28c0:	80000a37          	lui	s4,0x80000
    28c4:	00000293          	li	t0,0
    28c8:	005a05b3          	add	a1,s4,t0
    28cc:	00b0a223          	sw	a1,4(ra)
    28d0:	0001e397          	auipc	t2,0x1e
    28d4:	a3038393          	addi	t2,t2,-1488 # 20300 <begin_regstate>
    28d8:	0013a223          	sw	ra,4(t2)
    28dc:	0053aa23          	sw	t0,20(t2)
    28e0:	0063ac23          	sw	t1,24(t2)
    28e4:	0283a023          	sw	s0,32(t2)
    28e8:	02a3a423          	sw	a0,40(t2)
    28ec:	00058413          	mv	s0,a1
    28f0:	800002b7          	lui	t0,0x80000
    28f4:	2c540663          	beq	s0,t0,2bc0 <FN_WriteA0_common+0x298c>
    28f8:	0001ef97          	auipc	t6,0x1e
    28fc:	a08f8f93          	addi	t6,t6,-1528 # 20300 <begin_regstate>
    2900:	001fa223          	sw	ra,4(t6)
    2904:	005faa23          	sw	t0,20(t6)
    2908:	006fac23          	sw	t1,24(t6)
    290c:	028fa023          	sw	s0,32(t6)
    2910:	02afa423          	sw	a0,40(t6)
    2914:	0001e517          	auipc	a0,0x1e
    2918:	edf50513          	addi	a0,a0,-289 # 207f3 <end_regstate+0x3f3>
    291c:	8a1fd0ef          	jal	1bc <FN_WriteStr>
    2920:	0001ef97          	auipc	t6,0x1e
    2924:	9e0f8f93          	addi	t6,t6,-1568 # 20300 <begin_regstate>
    2928:	004fa083          	lw	ra,4(t6)
    292c:	014fa283          	lw	t0,20(t6)
    2930:	018fa303          	lw	t1,24(t6)
    2934:	020fa403          	lw	s0,32(t6)
    2938:	028fa503          	lw	a0,40(t6)
    293c:	0001ef97          	auipc	t6,0x1e
    2940:	9c4f8f93          	addi	t6,t6,-1596 # 20300 <begin_regstate>
    2944:	001fa223          	sw	ra,4(t6)
    2948:	005faa23          	sw	t0,20(t6)
    294c:	006fac23          	sw	t1,24(t6)
    2950:	028fa023          	sw	s0,32(t6)
    2954:	02afa423          	sw	a0,40(t6)
    2958:	0001e517          	auipc	a0,0x1e
    295c:	eb650513          	addi	a0,a0,-330 # 2080e <end_regstate+0x40e>
    2960:	85dfd0ef          	jal	1bc <FN_WriteStr>
    2964:	0001ef97          	auipc	t6,0x1e
    2968:	99cf8f93          	addi	t6,t6,-1636 # 20300 <begin_regstate>
    296c:	004fa083          	lw	ra,4(t6)
    2970:	014fa283          	lw	t0,20(t6)
    2974:	018fa303          	lw	t1,24(t6)
    2978:	020fa403          	lw	s0,32(t6)
    297c:	028fa503          	lw	a0,40(t6)
    2980:	0001ef97          	auipc	t6,0x1e
    2984:	980f8f93          	addi	t6,t6,-1664 # 20300 <begin_regstate>
    2988:	001fa223          	sw	ra,4(t6)
    298c:	005faa23          	sw	t0,20(t6)
    2990:	006fac23          	sw	t1,24(t6)
    2994:	028fa023          	sw	s0,32(t6)
    2998:	02afa423          	sw	a0,40(t6)
    299c:	0001e517          	auipc	a0,0x1e
    29a0:	e8150513          	addi	a0,a0,-383 # 2081d <end_regstate+0x41d>
    29a4:	819fd0ef          	jal	1bc <FN_WriteStr>
    29a8:	0001ef97          	auipc	t6,0x1e
    29ac:	958f8f93          	addi	t6,t6,-1704 # 20300 <begin_regstate>
    29b0:	004fa083          	lw	ra,4(t6)
    29b4:	014fa283          	lw	t0,20(t6)
    29b8:	018fa303          	lw	t1,24(t6)
    29bc:	020fa403          	lw	s0,32(t6)
    29c0:	028fa503          	lw	a0,40(t6)
    29c4:	0001ef97          	auipc	t6,0x1e
    29c8:	93cf8f93          	addi	t6,t6,-1732 # 20300 <begin_regstate>
    29cc:	001fa223          	sw	ra,4(t6)
    29d0:	005faa23          	sw	t0,20(t6)
    29d4:	006fac23          	sw	t1,24(t6)
    29d8:	028fa023          	sw	s0,32(t6)
    29dc:	02afa423          	sw	a0,40(t6)
    29e0:	0001e517          	auipc	a0,0x1e
    29e4:	e4550513          	addi	a0,a0,-443 # 20825 <end_regstate+0x425>
    29e8:	fd4fd0ef          	jal	1bc <FN_WriteStr>
    29ec:	0001ef97          	auipc	t6,0x1e
    29f0:	914f8f93          	addi	t6,t6,-1772 # 20300 <begin_regstate>
    29f4:	004fa083          	lw	ra,4(t6)
    29f8:	014fa283          	lw	t0,20(t6)
    29fc:	018fa303          	lw	t1,24(t6)
    2a00:	020fa403          	lw	s0,32(t6)
    2a04:	028fa503          	lw	a0,40(t6)
    2a08:	0001ef97          	auipc	t6,0x1e
    2a0c:	8f8f8f93          	addi	t6,t6,-1800 # 20300 <begin_regstate>
    2a10:	001fa223          	sw	ra,4(t6)
    2a14:	005faa23          	sw	t0,20(t6)
    2a18:	006fac23          	sw	t1,24(t6)
    2a1c:	028fa023          	sw	s0,32(t6)
    2a20:	02afa423          	sw	a0,40(t6)
    2a24:	0001e517          	auipc	a0,0x1e
    2a28:	e0450513          	addi	a0,a0,-508 # 20828 <end_regstate+0x428>
    2a2c:	f90fd0ef          	jal	1bc <FN_WriteStr>
    2a30:	0001ef97          	auipc	t6,0x1e
    2a34:	8d0f8f93          	addi	t6,t6,-1840 # 20300 <begin_regstate>
    2a38:	004fa083          	lw	ra,4(t6)
    2a3c:	014fa283          	lw	t0,20(t6)
    2a40:	018fa303          	lw	t1,24(t6)
    2a44:	020fa403          	lw	s0,32(t6)
    2a48:	028fa503          	lw	a0,40(t6)
    2a4c:	0001ef97          	auipc	t6,0x1e
    2a50:	8b4f8f93          	addi	t6,t6,-1868 # 20300 <begin_regstate>
    2a54:	001fa223          	sw	ra,4(t6)
    2a58:	005faa23          	sw	t0,20(t6)
    2a5c:	006fac23          	sw	t1,24(t6)
    2a60:	028fa023          	sw	s0,32(t6)
    2a64:	02afa423          	sw	a0,40(t6)
    2a68:	0001e517          	auipc	a0,0x1e
    2a6c:	dc350513          	addi	a0,a0,-573 # 2082b <end_regstate+0x42b>
    2a70:	f4cfd0ef          	jal	1bc <FN_WriteStr>
    2a74:	0001ef97          	auipc	t6,0x1e
    2a78:	88cf8f93          	addi	t6,t6,-1908 # 20300 <begin_regstate>
    2a7c:	004fa083          	lw	ra,4(t6)
    2a80:	014fa283          	lw	t0,20(t6)
    2a84:	018fa303          	lw	t1,24(t6)
    2a88:	020fa403          	lw	s0,32(t6)
    2a8c:	028fa503          	lw	a0,40(t6)
    2a90:	0001ef97          	auipc	t6,0x1e
    2a94:	870f8f93          	addi	t6,t6,-1936 # 20300 <begin_regstate>
    2a98:	001fa223          	sw	ra,4(t6)
    2a9c:	005faa23          	sw	t0,20(t6)
    2aa0:	006fac23          	sw	t1,24(t6)
    2aa4:	028fa023          	sw	s0,32(t6)
    2aa8:	02afa423          	sw	a0,40(t6)
    2aac:	0001e517          	auipc	a0,0x1e
    2ab0:	d8350513          	addi	a0,a0,-637 # 2082f <end_regstate+0x42f>
    2ab4:	f08fd0ef          	jal	1bc <FN_WriteStr>
    2ab8:	0001ef97          	auipc	t6,0x1e
    2abc:	848f8f93          	addi	t6,t6,-1976 # 20300 <begin_regstate>
    2ac0:	004fa083          	lw	ra,4(t6)
    2ac4:	014fa283          	lw	t0,20(t6)
    2ac8:	018fa303          	lw	t1,24(t6)
    2acc:	020fa403          	lw	s0,32(t6)
    2ad0:	028fa503          	lw	a0,40(t6)
    2ad4:	00040513          	mv	a0,s0
    2ad8:	f04fd0ef          	jal	1dc <FN_WriteA0>
    2adc:	0001ef97          	auipc	t6,0x1e
    2ae0:	824f8f93          	addi	t6,t6,-2012 # 20300 <begin_regstate>
    2ae4:	001fa223          	sw	ra,4(t6)
    2ae8:	005faa23          	sw	t0,20(t6)
    2aec:	006fac23          	sw	t1,24(t6)
    2af0:	028fa023          	sw	s0,32(t6)
    2af4:	02afa423          	sw	a0,40(t6)
    2af8:	0001e517          	auipc	a0,0x1e
    2afc:	d3950513          	addi	a0,a0,-711 # 20831 <end_regstate+0x431>
    2b00:	ebcfd0ef          	jal	1bc <FN_WriteStr>
    2b04:	0001df97          	auipc	t6,0x1d
    2b08:	7fcf8f93          	addi	t6,t6,2044 # 20300 <begin_regstate>
    2b0c:	004fa083          	lw	ra,4(t6)
    2b10:	014fa283          	lw	t0,20(t6)
    2b14:	018fa303          	lw	t1,24(t6)
    2b18:	020fa403          	lw	s0,32(t6)
    2b1c:	028fa503          	lw	a0,40(t6)
    2b20:	0001df97          	auipc	t6,0x1d
    2b24:	7e0f8f93          	addi	t6,t6,2016 # 20300 <begin_regstate>
    2b28:	001fa223          	sw	ra,4(t6)
    2b2c:	005faa23          	sw	t0,20(t6)
    2b30:	006fac23          	sw	t1,24(t6)
    2b34:	028fa023          	sw	s0,32(t6)
    2b38:	02afa423          	sw	a0,40(t6)
    2b3c:	0001e517          	auipc	a0,0x1e
    2b40:	cfb50513          	addi	a0,a0,-773 # 20837 <end_regstate+0x437>
    2b44:	e78fd0ef          	jal	1bc <FN_WriteStr>
    2b48:	0001df97          	auipc	t6,0x1d
    2b4c:	7b8f8f93          	addi	t6,t6,1976 # 20300 <begin_regstate>
    2b50:	004fa083          	lw	ra,4(t6)
    2b54:	014fa283          	lw	t0,20(t6)
    2b58:	018fa303          	lw	t1,24(t6)
    2b5c:	020fa403          	lw	s0,32(t6)
    2b60:	028fa503          	lw	a0,40(t6)
    2b64:	0001df97          	auipc	t6,0x1d
    2b68:	79cf8f93          	addi	t6,t6,1948 # 20300 <begin_regstate>
    2b6c:	001fa223          	sw	ra,4(t6)
    2b70:	005faa23          	sw	t0,20(t6)
    2b74:	006fac23          	sw	t1,24(t6)
    2b78:	028fa023          	sw	s0,32(t6)
    2b7c:	02afa423          	sw	a0,40(t6)
    2b80:	0001e517          	auipc	a0,0x1e
    2b84:	cc250513          	addi	a0,a0,-830 # 20842 <end_regstate+0x442>
    2b88:	e34fd0ef          	jal	1bc <FN_WriteStr>
    2b8c:	0001df97          	auipc	t6,0x1d
    2b90:	774f8f93          	addi	t6,t6,1908 # 20300 <begin_regstate>
    2b94:	004fa083          	lw	ra,4(t6)
    2b98:	014fa283          	lw	t0,20(t6)
    2b9c:	018fa303          	lw	t1,24(t6)
    2ba0:	020fa403          	lw	s0,32(t6)
    2ba4:	028fa503          	lw	a0,40(t6)
    2ba8:	06400193          	li	gp,100
    2bac:	0ff0000f          	fence
    2bb0:	00018063          	beqz	gp,2bb0 <FN_WriteA0_common+0x297c>
    2bb4:	00119193          	slli	gp,gp,0x1
    2bb8:	0011e193          	ori	gp,gp,1
    2bbc:	00000073          	ecall
    2bc0:	0001d397          	auipc	t2,0x1d
    2bc4:	74038393          	addi	t2,t2,1856 # 20300 <begin_regstate>
    2bc8:	0043a083          	lw	ra,4(t2)
    2bcc:	0143a283          	lw	t0,20(t2)
    2bd0:	0183a303          	lw	t1,24(t2)
    2bd4:	0203a403          	lw	s0,32(t2)
    2bd8:	0283a503          	lw	a0,40(t2)
    2bdc:	fffff9b7          	lui	s3,0xfffff
    2be0:	dcc98993          	addi	s3,s3,-564 # ffffedcc <_edata+0xfffddef2>
    2be4:	7ff00213          	li	tp,2047
    2be8:	00498633          	add	a2,s3,tp
    2bec:	00c0a423          	sw	a2,8(ra)
    2bf0:	0001d397          	auipc	t2,0x1d
    2bf4:	71038393          	addi	t2,t2,1808 # 20300 <begin_regstate>
    2bf8:	0013a223          	sw	ra,4(t2)
    2bfc:	0053aa23          	sw	t0,20(t2)
    2c00:	0063ac23          	sw	t1,24(t2)
    2c04:	0283a023          	sw	s0,32(t2)
    2c08:	02a3a423          	sw	a0,40(t2)
    2c0c:	00060413          	mv	s0,a2
    2c10:	fffff2b7          	lui	t0,0xfffff
    2c14:	5cb28293          	addi	t0,t0,1483 # fffff5cb <_edata+0xfffde6f1>
    2c18:	2c540663          	beq	s0,t0,2ee4 <FN_WriteA0_common+0x2cb0>
    2c1c:	0001df97          	auipc	t6,0x1d
    2c20:	6e4f8f93          	addi	t6,t6,1764 # 20300 <begin_regstate>
    2c24:	001fa223          	sw	ra,4(t6)
    2c28:	005faa23          	sw	t0,20(t6)
    2c2c:	006fac23          	sw	t1,24(t6)
    2c30:	028fa023          	sw	s0,32(t6)
    2c34:	02afa423          	sw	a0,40(t6)
    2c38:	0001e517          	auipc	a0,0x1e
    2c3c:	c0c50513          	addi	a0,a0,-1012 # 20844 <end_regstate+0x444>
    2c40:	d7cfd0ef          	jal	1bc <FN_WriteStr>
    2c44:	0001df97          	auipc	t6,0x1d
    2c48:	6bcf8f93          	addi	t6,t6,1724 # 20300 <begin_regstate>
    2c4c:	004fa083          	lw	ra,4(t6)
    2c50:	014fa283          	lw	t0,20(t6)
    2c54:	018fa303          	lw	t1,24(t6)
    2c58:	020fa403          	lw	s0,32(t6)
    2c5c:	028fa503          	lw	a0,40(t6)
    2c60:	0001df97          	auipc	t6,0x1d
    2c64:	6a0f8f93          	addi	t6,t6,1696 # 20300 <begin_regstate>
    2c68:	001fa223          	sw	ra,4(t6)
    2c6c:	005faa23          	sw	t0,20(t6)
    2c70:	006fac23          	sw	t1,24(t6)
    2c74:	028fa023          	sw	s0,32(t6)
    2c78:	02afa423          	sw	a0,40(t6)
    2c7c:	0001e517          	auipc	a0,0x1e
    2c80:	be350513          	addi	a0,a0,-1053 # 2085f <end_regstate+0x45f>
    2c84:	d38fd0ef          	jal	1bc <FN_WriteStr>
    2c88:	0001df97          	auipc	t6,0x1d
    2c8c:	678f8f93          	addi	t6,t6,1656 # 20300 <begin_regstate>
    2c90:	004fa083          	lw	ra,4(t6)
    2c94:	014fa283          	lw	t0,20(t6)
    2c98:	018fa303          	lw	t1,24(t6)
    2c9c:	020fa403          	lw	s0,32(t6)
    2ca0:	028fa503          	lw	a0,40(t6)
    2ca4:	0001df97          	auipc	t6,0x1d
    2ca8:	65cf8f93          	addi	t6,t6,1628 # 20300 <begin_regstate>
    2cac:	001fa223          	sw	ra,4(t6)
    2cb0:	005faa23          	sw	t0,20(t6)
    2cb4:	006fac23          	sw	t1,24(t6)
    2cb8:	028fa023          	sw	s0,32(t6)
    2cbc:	02afa423          	sw	a0,40(t6)
    2cc0:	0001e517          	auipc	a0,0x1e
    2cc4:	bae50513          	addi	a0,a0,-1106 # 2086e <end_regstate+0x46e>
    2cc8:	cf4fd0ef          	jal	1bc <FN_WriteStr>
    2ccc:	0001df97          	auipc	t6,0x1d
    2cd0:	634f8f93          	addi	t6,t6,1588 # 20300 <begin_regstate>
    2cd4:	004fa083          	lw	ra,4(t6)
    2cd8:	014fa283          	lw	t0,20(t6)
    2cdc:	018fa303          	lw	t1,24(t6)
    2ce0:	020fa403          	lw	s0,32(t6)
    2ce4:	028fa503          	lw	a0,40(t6)
    2ce8:	0001df97          	auipc	t6,0x1d
    2cec:	618f8f93          	addi	t6,t6,1560 # 20300 <begin_regstate>
    2cf0:	001fa223          	sw	ra,4(t6)
    2cf4:	005faa23          	sw	t0,20(t6)
    2cf8:	006fac23          	sw	t1,24(t6)
    2cfc:	028fa023          	sw	s0,32(t6)
    2d00:	02afa423          	sw	a0,40(t6)
    2d04:	0001e517          	auipc	a0,0x1e
    2d08:	b7250513          	addi	a0,a0,-1166 # 20876 <end_regstate+0x476>
    2d0c:	cb0fd0ef          	jal	1bc <FN_WriteStr>
    2d10:	0001df97          	auipc	t6,0x1d
    2d14:	5f0f8f93          	addi	t6,t6,1520 # 20300 <begin_regstate>
    2d18:	004fa083          	lw	ra,4(t6)
    2d1c:	014fa283          	lw	t0,20(t6)
    2d20:	018fa303          	lw	t1,24(t6)
    2d24:	020fa403          	lw	s0,32(t6)
    2d28:	028fa503          	lw	a0,40(t6)
    2d2c:	0001df97          	auipc	t6,0x1d
    2d30:	5d4f8f93          	addi	t6,t6,1492 # 20300 <begin_regstate>
    2d34:	001fa223          	sw	ra,4(t6)
    2d38:	005faa23          	sw	t0,20(t6)
    2d3c:	006fac23          	sw	t1,24(t6)
    2d40:	028fa023          	sw	s0,32(t6)
    2d44:	02afa423          	sw	a0,40(t6)
    2d48:	0001e517          	auipc	a0,0x1e
    2d4c:	b3150513          	addi	a0,a0,-1231 # 20879 <end_regstate+0x479>
    2d50:	c6cfd0ef          	jal	1bc <FN_WriteStr>
    2d54:	0001df97          	auipc	t6,0x1d
    2d58:	5acf8f93          	addi	t6,t6,1452 # 20300 <begin_regstate>
    2d5c:	004fa083          	lw	ra,4(t6)
    2d60:	014fa283          	lw	t0,20(t6)
    2d64:	018fa303          	lw	t1,24(t6)
    2d68:	020fa403          	lw	s0,32(t6)
    2d6c:	028fa503          	lw	a0,40(t6)
    2d70:	0001df97          	auipc	t6,0x1d
    2d74:	590f8f93          	addi	t6,t6,1424 # 20300 <begin_regstate>
    2d78:	001fa223          	sw	ra,4(t6)
    2d7c:	005faa23          	sw	t0,20(t6)
    2d80:	006fac23          	sw	t1,24(t6)
    2d84:	028fa023          	sw	s0,32(t6)
    2d88:	02afa423          	sw	a0,40(t6)
    2d8c:	0001e517          	auipc	a0,0x1e
    2d90:	af050513          	addi	a0,a0,-1296 # 2087c <end_regstate+0x47c>
    2d94:	c28fd0ef          	jal	1bc <FN_WriteStr>
    2d98:	0001df97          	auipc	t6,0x1d
    2d9c:	568f8f93          	addi	t6,t6,1384 # 20300 <begin_regstate>
    2da0:	004fa083          	lw	ra,4(t6)
    2da4:	014fa283          	lw	t0,20(t6)
    2da8:	018fa303          	lw	t1,24(t6)
    2dac:	020fa403          	lw	s0,32(t6)
    2db0:	028fa503          	lw	a0,40(t6)
    2db4:	0001df97          	auipc	t6,0x1d
    2db8:	54cf8f93          	addi	t6,t6,1356 # 20300 <begin_regstate>
    2dbc:	001fa223          	sw	ra,4(t6)
    2dc0:	005faa23          	sw	t0,20(t6)
    2dc4:	006fac23          	sw	t1,24(t6)
    2dc8:	028fa023          	sw	s0,32(t6)
    2dcc:	02afa423          	sw	a0,40(t6)
    2dd0:	0001e517          	auipc	a0,0x1e
    2dd4:	ab050513          	addi	a0,a0,-1360 # 20880 <end_regstate+0x480>
    2dd8:	be4fd0ef          	jal	1bc <FN_WriteStr>
    2ddc:	0001df97          	auipc	t6,0x1d
    2de0:	524f8f93          	addi	t6,t6,1316 # 20300 <begin_regstate>
    2de4:	004fa083          	lw	ra,4(t6)
    2de8:	014fa283          	lw	t0,20(t6)
    2dec:	018fa303          	lw	t1,24(t6)
    2df0:	020fa403          	lw	s0,32(t6)
    2df4:	028fa503          	lw	a0,40(t6)
    2df8:	00040513          	mv	a0,s0
    2dfc:	be0fd0ef          	jal	1dc <FN_WriteA0>
    2e00:	0001df97          	auipc	t6,0x1d
    2e04:	500f8f93          	addi	t6,t6,1280 # 20300 <begin_regstate>
    2e08:	001fa223          	sw	ra,4(t6)
    2e0c:	005faa23          	sw	t0,20(t6)
    2e10:	006fac23          	sw	t1,24(t6)
    2e14:	028fa023          	sw	s0,32(t6)
    2e18:	02afa423          	sw	a0,40(t6)
    2e1c:	0001e517          	auipc	a0,0x1e
    2e20:	a6650513          	addi	a0,a0,-1434 # 20882 <end_regstate+0x482>
    2e24:	b98fd0ef          	jal	1bc <FN_WriteStr>
    2e28:	0001df97          	auipc	t6,0x1d
    2e2c:	4d8f8f93          	addi	t6,t6,1240 # 20300 <begin_regstate>
    2e30:	004fa083          	lw	ra,4(t6)
    2e34:	014fa283          	lw	t0,20(t6)
    2e38:	018fa303          	lw	t1,24(t6)
    2e3c:	020fa403          	lw	s0,32(t6)
    2e40:	028fa503          	lw	a0,40(t6)
    2e44:	0001df97          	auipc	t6,0x1d
    2e48:	4bcf8f93          	addi	t6,t6,1212 # 20300 <begin_regstate>
    2e4c:	001fa223          	sw	ra,4(t6)
    2e50:	005faa23          	sw	t0,20(t6)
    2e54:	006fac23          	sw	t1,24(t6)
    2e58:	028fa023          	sw	s0,32(t6)
    2e5c:	02afa423          	sw	a0,40(t6)
    2e60:	0001e517          	auipc	a0,0x1e
    2e64:	a2850513          	addi	a0,a0,-1496 # 20888 <end_regstate+0x488>
    2e68:	b54fd0ef          	jal	1bc <FN_WriteStr>
    2e6c:	0001df97          	auipc	t6,0x1d
    2e70:	494f8f93          	addi	t6,t6,1172 # 20300 <begin_regstate>
    2e74:	004fa083          	lw	ra,4(t6)
    2e78:	014fa283          	lw	t0,20(t6)
    2e7c:	018fa303          	lw	t1,24(t6)
    2e80:	020fa403          	lw	s0,32(t6)
    2e84:	028fa503          	lw	a0,40(t6)
    2e88:	0001df97          	auipc	t6,0x1d
    2e8c:	478f8f93          	addi	t6,t6,1144 # 20300 <begin_regstate>
    2e90:	001fa223          	sw	ra,4(t6)
    2e94:	005faa23          	sw	t0,20(t6)
    2e98:	006fac23          	sw	t1,24(t6)
    2e9c:	028fa023          	sw	s0,32(t6)
    2ea0:	02afa423          	sw	a0,40(t6)
    2ea4:	0001e517          	auipc	a0,0x1e
    2ea8:	9ef50513          	addi	a0,a0,-1553 # 20893 <end_regstate+0x493>
    2eac:	b10fd0ef          	jal	1bc <FN_WriteStr>
    2eb0:	0001df97          	auipc	t6,0x1d
    2eb4:	450f8f93          	addi	t6,t6,1104 # 20300 <begin_regstate>
    2eb8:	004fa083          	lw	ra,4(t6)
    2ebc:	014fa283          	lw	t0,20(t6)
    2ec0:	018fa303          	lw	t1,24(t6)
    2ec4:	020fa403          	lw	s0,32(t6)
    2ec8:	028fa503          	lw	a0,40(t6)
    2ecc:	06400193          	li	gp,100
    2ed0:	0ff0000f          	fence
    2ed4:	00018063          	beqz	gp,2ed4 <FN_WriteA0_common+0x2ca0>
    2ed8:	00119193          	slli	gp,gp,0x1
    2edc:	0011e193          	ori	gp,gp,1
    2ee0:	00000073          	ecall
    2ee4:	0001d397          	auipc	t2,0x1d
    2ee8:	41c38393          	addi	t2,t2,1052 # 20300 <begin_regstate>
    2eec:	0043a083          	lw	ra,4(t2)
    2ef0:	0143a283          	lw	t0,20(t2)
    2ef4:	0183a303          	lw	t1,24(t2)
    2ef8:	0203a403          	lw	s0,32(t2)
    2efc:	0283a503          	lw	a0,40(t2)
    2f00:	fff00913          	li	s2,-1
    2f04:	fff00193          	li	gp,-1
    2f08:	003906b3          	add	a3,s2,gp
    2f0c:	00d0a623          	sw	a3,12(ra)
    2f10:	0001d397          	auipc	t2,0x1d
    2f14:	3f038393          	addi	t2,t2,1008 # 20300 <begin_regstate>
    2f18:	0013a223          	sw	ra,4(t2)
    2f1c:	0053aa23          	sw	t0,20(t2)
    2f20:	0063ac23          	sw	t1,24(t2)
    2f24:	0283a023          	sw	s0,32(t2)
    2f28:	02a3a423          	sw	a0,40(t2)
    2f2c:	00068413          	mv	s0,a3
    2f30:	ffe00293          	li	t0,-2
    2f34:	2c540663          	beq	s0,t0,3200 <FN_WriteA0_common+0x2fcc>
    2f38:	0001df97          	auipc	t6,0x1d
    2f3c:	3c8f8f93          	addi	t6,t6,968 # 20300 <begin_regstate>
    2f40:	001fa223          	sw	ra,4(t6)
    2f44:	005faa23          	sw	t0,20(t6)
    2f48:	006fac23          	sw	t1,24(t6)
    2f4c:	028fa023          	sw	s0,32(t6)
    2f50:	02afa423          	sw	a0,40(t6)
    2f54:	0001e517          	auipc	a0,0x1e
    2f58:	94150513          	addi	a0,a0,-1727 # 20895 <end_regstate+0x495>
    2f5c:	a60fd0ef          	jal	1bc <FN_WriteStr>
    2f60:	0001df97          	auipc	t6,0x1d
    2f64:	3a0f8f93          	addi	t6,t6,928 # 20300 <begin_regstate>
    2f68:	004fa083          	lw	ra,4(t6)
    2f6c:	014fa283          	lw	t0,20(t6)
    2f70:	018fa303          	lw	t1,24(t6)
    2f74:	020fa403          	lw	s0,32(t6)
    2f78:	028fa503          	lw	a0,40(t6)
    2f7c:	0001df97          	auipc	t6,0x1d
    2f80:	384f8f93          	addi	t6,t6,900 # 20300 <begin_regstate>
    2f84:	001fa223          	sw	ra,4(t6)
    2f88:	005faa23          	sw	t0,20(t6)
    2f8c:	006fac23          	sw	t1,24(t6)
    2f90:	028fa023          	sw	s0,32(t6)
    2f94:	02afa423          	sw	a0,40(t6)
    2f98:	0001e517          	auipc	a0,0x1e
    2f9c:	91850513          	addi	a0,a0,-1768 # 208b0 <end_regstate+0x4b0>
    2fa0:	a1cfd0ef          	jal	1bc <FN_WriteStr>
    2fa4:	0001df97          	auipc	t6,0x1d
    2fa8:	35cf8f93          	addi	t6,t6,860 # 20300 <begin_regstate>
    2fac:	004fa083          	lw	ra,4(t6)
    2fb0:	014fa283          	lw	t0,20(t6)
    2fb4:	018fa303          	lw	t1,24(t6)
    2fb8:	020fa403          	lw	s0,32(t6)
    2fbc:	028fa503          	lw	a0,40(t6)
    2fc0:	0001df97          	auipc	t6,0x1d
    2fc4:	340f8f93          	addi	t6,t6,832 # 20300 <begin_regstate>
    2fc8:	001fa223          	sw	ra,4(t6)
    2fcc:	005faa23          	sw	t0,20(t6)
    2fd0:	006fac23          	sw	t1,24(t6)
    2fd4:	028fa023          	sw	s0,32(t6)
    2fd8:	02afa423          	sw	a0,40(t6)
    2fdc:	0001e517          	auipc	a0,0x1e
    2fe0:	8e350513          	addi	a0,a0,-1821 # 208bf <end_regstate+0x4bf>
    2fe4:	9d8fd0ef          	jal	1bc <FN_WriteStr>
    2fe8:	0001df97          	auipc	t6,0x1d
    2fec:	318f8f93          	addi	t6,t6,792 # 20300 <begin_regstate>
    2ff0:	004fa083          	lw	ra,4(t6)
    2ff4:	014fa283          	lw	t0,20(t6)
    2ff8:	018fa303          	lw	t1,24(t6)
    2ffc:	020fa403          	lw	s0,32(t6)
    3000:	028fa503          	lw	a0,40(t6)
    3004:	0001df97          	auipc	t6,0x1d
    3008:	2fcf8f93          	addi	t6,t6,764 # 20300 <begin_regstate>
    300c:	001fa223          	sw	ra,4(t6)
    3010:	005faa23          	sw	t0,20(t6)
    3014:	006fac23          	sw	t1,24(t6)
    3018:	028fa023          	sw	s0,32(t6)
    301c:	02afa423          	sw	a0,40(t6)
    3020:	0001e517          	auipc	a0,0x1e
    3024:	8a750513          	addi	a0,a0,-1881 # 208c7 <end_regstate+0x4c7>
    3028:	994fd0ef          	jal	1bc <FN_WriteStr>
    302c:	0001df97          	auipc	t6,0x1d
    3030:	2d4f8f93          	addi	t6,t6,724 # 20300 <begin_regstate>
    3034:	004fa083          	lw	ra,4(t6)
    3038:	014fa283          	lw	t0,20(t6)
    303c:	018fa303          	lw	t1,24(t6)
    3040:	020fa403          	lw	s0,32(t6)
    3044:	028fa503          	lw	a0,40(t6)
    3048:	0001df97          	auipc	t6,0x1d
    304c:	2b8f8f93          	addi	t6,t6,696 # 20300 <begin_regstate>
    3050:	001fa223          	sw	ra,4(t6)
    3054:	005faa23          	sw	t0,20(t6)
    3058:	006fac23          	sw	t1,24(t6)
    305c:	028fa023          	sw	s0,32(t6)
    3060:	02afa423          	sw	a0,40(t6)
    3064:	0001e517          	auipc	a0,0x1e
    3068:	86650513          	addi	a0,a0,-1946 # 208ca <end_regstate+0x4ca>
    306c:	950fd0ef          	jal	1bc <FN_WriteStr>
    3070:	0001df97          	auipc	t6,0x1d
    3074:	290f8f93          	addi	t6,t6,656 # 20300 <begin_regstate>
    3078:	004fa083          	lw	ra,4(t6)
    307c:	014fa283          	lw	t0,20(t6)
    3080:	018fa303          	lw	t1,24(t6)
    3084:	020fa403          	lw	s0,32(t6)
    3088:	028fa503          	lw	a0,40(t6)
    308c:	0001df97          	auipc	t6,0x1d
    3090:	274f8f93          	addi	t6,t6,628 # 20300 <begin_regstate>
    3094:	001fa223          	sw	ra,4(t6)
    3098:	005faa23          	sw	t0,20(t6)
    309c:	006fac23          	sw	t1,24(t6)
    30a0:	028fa023          	sw	s0,32(t6)
    30a4:	02afa423          	sw	a0,40(t6)
    30a8:	0001e517          	auipc	a0,0x1e
    30ac:	82550513          	addi	a0,a0,-2011 # 208cd <end_regstate+0x4cd>
    30b0:	90cfd0ef          	jal	1bc <FN_WriteStr>
    30b4:	0001df97          	auipc	t6,0x1d
    30b8:	24cf8f93          	addi	t6,t6,588 # 20300 <begin_regstate>
    30bc:	004fa083          	lw	ra,4(t6)
    30c0:	014fa283          	lw	t0,20(t6)
    30c4:	018fa303          	lw	t1,24(t6)
    30c8:	020fa403          	lw	s0,32(t6)
    30cc:	028fa503          	lw	a0,40(t6)
    30d0:	0001df97          	auipc	t6,0x1d
    30d4:	230f8f93          	addi	t6,t6,560 # 20300 <begin_regstate>
    30d8:	001fa223          	sw	ra,4(t6)
    30dc:	005faa23          	sw	t0,20(t6)
    30e0:	006fac23          	sw	t1,24(t6)
    30e4:	028fa023          	sw	s0,32(t6)
    30e8:	02afa423          	sw	a0,40(t6)
    30ec:	0001d517          	auipc	a0,0x1d
    30f0:	7e550513          	addi	a0,a0,2021 # 208d1 <end_regstate+0x4d1>
    30f4:	8c8fd0ef          	jal	1bc <FN_WriteStr>
    30f8:	0001df97          	auipc	t6,0x1d
    30fc:	208f8f93          	addi	t6,t6,520 # 20300 <begin_regstate>
    3100:	004fa083          	lw	ra,4(t6)
    3104:	014fa283          	lw	t0,20(t6)
    3108:	018fa303          	lw	t1,24(t6)
    310c:	020fa403          	lw	s0,32(t6)
    3110:	028fa503          	lw	a0,40(t6)
    3114:	00040513          	mv	a0,s0
    3118:	8c4fd0ef          	jal	1dc <FN_WriteA0>
    311c:	0001df97          	auipc	t6,0x1d
    3120:	1e4f8f93          	addi	t6,t6,484 # 20300 <begin_regstate>
    3124:	001fa223          	sw	ra,4(t6)
    3128:	005faa23          	sw	t0,20(t6)
    312c:	006fac23          	sw	t1,24(t6)
    3130:	028fa023          	sw	s0,32(t6)
    3134:	02afa423          	sw	a0,40(t6)
    3138:	0001d517          	auipc	a0,0x1d
    313c:	79b50513          	addi	a0,a0,1947 # 208d3 <end_regstate+0x4d3>
    3140:	87cfd0ef          	jal	1bc <FN_WriteStr>
    3144:	0001df97          	auipc	t6,0x1d
    3148:	1bcf8f93          	addi	t6,t6,444 # 20300 <begin_regstate>
    314c:	004fa083          	lw	ra,4(t6)
    3150:	014fa283          	lw	t0,20(t6)
    3154:	018fa303          	lw	t1,24(t6)
    3158:	020fa403          	lw	s0,32(t6)
    315c:	028fa503          	lw	a0,40(t6)
    3160:	0001df97          	auipc	t6,0x1d
    3164:	1a0f8f93          	addi	t6,t6,416 # 20300 <begin_regstate>
    3168:	001fa223          	sw	ra,4(t6)
    316c:	005faa23          	sw	t0,20(t6)
    3170:	006fac23          	sw	t1,24(t6)
    3174:	028fa023          	sw	s0,32(t6)
    3178:	02afa423          	sw	a0,40(t6)
    317c:	0001d517          	auipc	a0,0x1d
    3180:	75d50513          	addi	a0,a0,1885 # 208d9 <end_regstate+0x4d9>
    3184:	838fd0ef          	jal	1bc <FN_WriteStr>
    3188:	0001df97          	auipc	t6,0x1d
    318c:	178f8f93          	addi	t6,t6,376 # 20300 <begin_regstate>
    3190:	004fa083          	lw	ra,4(t6)
    3194:	014fa283          	lw	t0,20(t6)
    3198:	018fa303          	lw	t1,24(t6)
    319c:	020fa403          	lw	s0,32(t6)
    31a0:	028fa503          	lw	a0,40(t6)
    31a4:	0001df97          	auipc	t6,0x1d
    31a8:	15cf8f93          	addi	t6,t6,348 # 20300 <begin_regstate>
    31ac:	001fa223          	sw	ra,4(t6)
    31b0:	005faa23          	sw	t0,20(t6)
    31b4:	006fac23          	sw	t1,24(t6)
    31b8:	028fa023          	sw	s0,32(t6)
    31bc:	02afa423          	sw	a0,40(t6)
    31c0:	0001d517          	auipc	a0,0x1d
    31c4:	72450513          	addi	a0,a0,1828 # 208e4 <end_regstate+0x4e4>
    31c8:	ff5fc0ef          	jal	1bc <FN_WriteStr>
    31cc:	0001df97          	auipc	t6,0x1d
    31d0:	134f8f93          	addi	t6,t6,308 # 20300 <begin_regstate>
    31d4:	004fa083          	lw	ra,4(t6)
    31d8:	014fa283          	lw	t0,20(t6)
    31dc:	018fa303          	lw	t1,24(t6)
    31e0:	020fa403          	lw	s0,32(t6)
    31e4:	028fa503          	lw	a0,40(t6)
    31e8:	06400193          	li	gp,100
    31ec:	0ff0000f          	fence
    31f0:	00018063          	beqz	gp,31f0 <FN_WriteA0_common+0x2fbc>
    31f4:	00119193          	slli	gp,gp,0x1
    31f8:	0011e193          	ori	gp,gp,1
    31fc:	00000073          	ecall
    3200:	0001d397          	auipc	t2,0x1d
    3204:	10038393          	addi	t2,t2,256 # 20300 <begin_regstate>
    3208:	0043a083          	lw	ra,4(t2)
    320c:	0143a283          	lw	t0,20(t2)
    3210:	0183a303          	lw	t1,24(t2)
    3214:	0203a403          	lw	s0,32(t2)
    3218:	0283a503          	lw	a0,40(t2)
    321c:	80100893          	li	a7,-2047
    3220:	00100113          	li	sp,1
    3224:	00288733          	add	a4,a7,sp
    3228:	00e0a823          	sw	a4,16(ra)
    322c:	0001d397          	auipc	t2,0x1d
    3230:	0d438393          	addi	t2,t2,212 # 20300 <begin_regstate>
    3234:	0013a223          	sw	ra,4(t2)
    3238:	0053aa23          	sw	t0,20(t2)
    323c:	0063ac23          	sw	t1,24(t2)
    3240:	0283a023          	sw	s0,32(t2)
    3244:	02a3a423          	sw	a0,40(t2)
    3248:	00070413          	mv	s0,a4
    324c:	80200293          	li	t0,-2046
    3250:	2c540663          	beq	s0,t0,351c <FN_WriteA0_common+0x32e8>
    3254:	0001df97          	auipc	t6,0x1d
    3258:	0acf8f93          	addi	t6,t6,172 # 20300 <begin_regstate>
    325c:	001fa223          	sw	ra,4(t6)
    3260:	005faa23          	sw	t0,20(t6)
    3264:	006fac23          	sw	t1,24(t6)
    3268:	028fa023          	sw	s0,32(t6)
    326c:	02afa423          	sw	a0,40(t6)
    3270:	0001d517          	auipc	a0,0x1d
    3274:	67650513          	addi	a0,a0,1654 # 208e6 <end_regstate+0x4e6>
    3278:	f45fc0ef          	jal	1bc <FN_WriteStr>
    327c:	0001df97          	auipc	t6,0x1d
    3280:	084f8f93          	addi	t6,t6,132 # 20300 <begin_regstate>
    3284:	004fa083          	lw	ra,4(t6)
    3288:	014fa283          	lw	t0,20(t6)
    328c:	018fa303          	lw	t1,24(t6)
    3290:	020fa403          	lw	s0,32(t6)
    3294:	028fa503          	lw	a0,40(t6)
    3298:	0001df97          	auipc	t6,0x1d
    329c:	068f8f93          	addi	t6,t6,104 # 20300 <begin_regstate>
    32a0:	001fa223          	sw	ra,4(t6)
    32a4:	005faa23          	sw	t0,20(t6)
    32a8:	006fac23          	sw	t1,24(t6)
    32ac:	028fa023          	sw	s0,32(t6)
    32b0:	02afa423          	sw	a0,40(t6)
    32b4:	0001d517          	auipc	a0,0x1d
    32b8:	64d50513          	addi	a0,a0,1613 # 20901 <end_regstate+0x501>
    32bc:	f01fc0ef          	jal	1bc <FN_WriteStr>
    32c0:	0001df97          	auipc	t6,0x1d
    32c4:	040f8f93          	addi	t6,t6,64 # 20300 <begin_regstate>
    32c8:	004fa083          	lw	ra,4(t6)
    32cc:	014fa283          	lw	t0,20(t6)
    32d0:	018fa303          	lw	t1,24(t6)
    32d4:	020fa403          	lw	s0,32(t6)
    32d8:	028fa503          	lw	a0,40(t6)
    32dc:	0001df97          	auipc	t6,0x1d
    32e0:	024f8f93          	addi	t6,t6,36 # 20300 <begin_regstate>
    32e4:	001fa223          	sw	ra,4(t6)
    32e8:	005faa23          	sw	t0,20(t6)
    32ec:	006fac23          	sw	t1,24(t6)
    32f0:	028fa023          	sw	s0,32(t6)
    32f4:	02afa423          	sw	a0,40(t6)
    32f8:	0001d517          	auipc	a0,0x1d
    32fc:	61850513          	addi	a0,a0,1560 # 20910 <end_regstate+0x510>
    3300:	ebdfc0ef          	jal	1bc <FN_WriteStr>
    3304:	0001df97          	auipc	t6,0x1d
    3308:	ffcf8f93          	addi	t6,t6,-4 # 20300 <begin_regstate>
    330c:	004fa083          	lw	ra,4(t6)
    3310:	014fa283          	lw	t0,20(t6)
    3314:	018fa303          	lw	t1,24(t6)
    3318:	020fa403          	lw	s0,32(t6)
    331c:	028fa503          	lw	a0,40(t6)
    3320:	0001df97          	auipc	t6,0x1d
    3324:	fe0f8f93          	addi	t6,t6,-32 # 20300 <begin_regstate>
    3328:	001fa223          	sw	ra,4(t6)
    332c:	005faa23          	sw	t0,20(t6)
    3330:	006fac23          	sw	t1,24(t6)
    3334:	028fa023          	sw	s0,32(t6)
    3338:	02afa423          	sw	a0,40(t6)
    333c:	0001d517          	auipc	a0,0x1d
    3340:	5dc50513          	addi	a0,a0,1500 # 20918 <end_regstate+0x518>
    3344:	e79fc0ef          	jal	1bc <FN_WriteStr>
    3348:	0001df97          	auipc	t6,0x1d
    334c:	fb8f8f93          	addi	t6,t6,-72 # 20300 <begin_regstate>
    3350:	004fa083          	lw	ra,4(t6)
    3354:	014fa283          	lw	t0,20(t6)
    3358:	018fa303          	lw	t1,24(t6)
    335c:	020fa403          	lw	s0,32(t6)
    3360:	028fa503          	lw	a0,40(t6)
    3364:	0001df97          	auipc	t6,0x1d
    3368:	f9cf8f93          	addi	t6,t6,-100 # 20300 <begin_regstate>
    336c:	001fa223          	sw	ra,4(t6)
    3370:	005faa23          	sw	t0,20(t6)
    3374:	006fac23          	sw	t1,24(t6)
    3378:	028fa023          	sw	s0,32(t6)
    337c:	02afa423          	sw	a0,40(t6)
    3380:	0001d517          	auipc	a0,0x1d
    3384:	59b50513          	addi	a0,a0,1435 # 2091b <end_regstate+0x51b>
    3388:	e35fc0ef          	jal	1bc <FN_WriteStr>
    338c:	0001df97          	auipc	t6,0x1d
    3390:	f74f8f93          	addi	t6,t6,-140 # 20300 <begin_regstate>
    3394:	004fa083          	lw	ra,4(t6)
    3398:	014fa283          	lw	t0,20(t6)
    339c:	018fa303          	lw	t1,24(t6)
    33a0:	020fa403          	lw	s0,32(t6)
    33a4:	028fa503          	lw	a0,40(t6)
    33a8:	0001df97          	auipc	t6,0x1d
    33ac:	f58f8f93          	addi	t6,t6,-168 # 20300 <begin_regstate>
    33b0:	001fa223          	sw	ra,4(t6)
    33b4:	005faa23          	sw	t0,20(t6)
    33b8:	006fac23          	sw	t1,24(t6)
    33bc:	028fa023          	sw	s0,32(t6)
    33c0:	02afa423          	sw	a0,40(t6)
    33c4:	0001d517          	auipc	a0,0x1d
    33c8:	55a50513          	addi	a0,a0,1370 # 2091e <end_regstate+0x51e>
    33cc:	df1fc0ef          	jal	1bc <FN_WriteStr>
    33d0:	0001df97          	auipc	t6,0x1d
    33d4:	f30f8f93          	addi	t6,t6,-208 # 20300 <begin_regstate>
    33d8:	004fa083          	lw	ra,4(t6)
    33dc:	014fa283          	lw	t0,20(t6)
    33e0:	018fa303          	lw	t1,24(t6)
    33e4:	020fa403          	lw	s0,32(t6)
    33e8:	028fa503          	lw	a0,40(t6)
    33ec:	0001df97          	auipc	t6,0x1d
    33f0:	f14f8f93          	addi	t6,t6,-236 # 20300 <begin_regstate>
    33f4:	001fa223          	sw	ra,4(t6)
    33f8:	005faa23          	sw	t0,20(t6)
    33fc:	006fac23          	sw	t1,24(t6)
    3400:	028fa023          	sw	s0,32(t6)
    3404:	02afa423          	sw	a0,40(t6)
    3408:	0001d517          	auipc	a0,0x1d
    340c:	51a50513          	addi	a0,a0,1306 # 20922 <end_regstate+0x522>
    3410:	dadfc0ef          	jal	1bc <FN_WriteStr>
    3414:	0001df97          	auipc	t6,0x1d
    3418:	eecf8f93          	addi	t6,t6,-276 # 20300 <begin_regstate>
    341c:	004fa083          	lw	ra,4(t6)
    3420:	014fa283          	lw	t0,20(t6)
    3424:	018fa303          	lw	t1,24(t6)
    3428:	020fa403          	lw	s0,32(t6)
    342c:	028fa503          	lw	a0,40(t6)
    3430:	00040513          	mv	a0,s0
    3434:	da9fc0ef          	jal	1dc <FN_WriteA0>
    3438:	0001df97          	auipc	t6,0x1d
    343c:	ec8f8f93          	addi	t6,t6,-312 # 20300 <begin_regstate>
    3440:	001fa223          	sw	ra,4(t6)
    3444:	005faa23          	sw	t0,20(t6)
    3448:	006fac23          	sw	t1,24(t6)
    344c:	028fa023          	sw	s0,32(t6)
    3450:	02afa423          	sw	a0,40(t6)
    3454:	0001d517          	auipc	a0,0x1d
    3458:	4d050513          	addi	a0,a0,1232 # 20924 <end_regstate+0x524>
    345c:	d61fc0ef          	jal	1bc <FN_WriteStr>
    3460:	0001df97          	auipc	t6,0x1d
    3464:	ea0f8f93          	addi	t6,t6,-352 # 20300 <begin_regstate>
    3468:	004fa083          	lw	ra,4(t6)
    346c:	014fa283          	lw	t0,20(t6)
    3470:	018fa303          	lw	t1,24(t6)
    3474:	020fa403          	lw	s0,32(t6)
    3478:	028fa503          	lw	a0,40(t6)
    347c:	0001df97          	auipc	t6,0x1d
    3480:	e84f8f93          	addi	t6,t6,-380 # 20300 <begin_regstate>
    3484:	001fa223          	sw	ra,4(t6)
    3488:	005faa23          	sw	t0,20(t6)
    348c:	006fac23          	sw	t1,24(t6)
    3490:	028fa023          	sw	s0,32(t6)
    3494:	02afa423          	sw	a0,40(t6)
    3498:	0001d517          	auipc	a0,0x1d
    349c:	49250513          	addi	a0,a0,1170 # 2092a <end_regstate+0x52a>
    34a0:	d1dfc0ef          	jal	1bc <FN_WriteStr>
    34a4:	0001df97          	auipc	t6,0x1d
    34a8:	e5cf8f93          	addi	t6,t6,-420 # 20300 <begin_regstate>
    34ac:	004fa083          	lw	ra,4(t6)
    34b0:	014fa283          	lw	t0,20(t6)
    34b4:	018fa303          	lw	t1,24(t6)
    34b8:	020fa403          	lw	s0,32(t6)
    34bc:	028fa503          	lw	a0,40(t6)
    34c0:	0001df97          	auipc	t6,0x1d
    34c4:	e40f8f93          	addi	t6,t6,-448 # 20300 <begin_regstate>
    34c8:	001fa223          	sw	ra,4(t6)
    34cc:	005faa23          	sw	t0,20(t6)
    34d0:	006fac23          	sw	t1,24(t6)
    34d4:	028fa023          	sw	s0,32(t6)
    34d8:	02afa423          	sw	a0,40(t6)
    34dc:	0001d517          	auipc	a0,0x1d
    34e0:	45950513          	addi	a0,a0,1113 # 20935 <end_regstate+0x535>
    34e4:	cd9fc0ef          	jal	1bc <FN_WriteStr>
    34e8:	0001df97          	auipc	t6,0x1d
    34ec:	e18f8f93          	addi	t6,t6,-488 # 20300 <begin_regstate>
    34f0:	004fa083          	lw	ra,4(t6)
    34f4:	014fa283          	lw	t0,20(t6)
    34f8:	018fa303          	lw	t1,24(t6)
    34fc:	020fa403          	lw	s0,32(t6)
    3500:	028fa503          	lw	a0,40(t6)
    3504:	06400193          	li	gp,100
    3508:	0ff0000f          	fence
    350c:	00018063          	beqz	gp,350c <FN_WriteA0_common+0x32d8>
    3510:	00119193          	slli	gp,gp,0x1
    3514:	0011e193          	ori	gp,gp,1
    3518:	00000073          	ecall
    351c:	0001d397          	auipc	t2,0x1d
    3520:	de438393          	addi	t2,t2,-540 # 20300 <begin_regstate>
    3524:	0043a083          	lw	ra,4(t2)
    3528:	0143a283          	lw	t0,20(t2)
    352c:	0183a303          	lw	t1,24(t2)
    3530:	0203a403          	lw	s0,32(t2)
    3534:	0283a503          	lw	a0,40(t2)
    3538:	0001df97          	auipc	t6,0x1d
    353c:	dc8f8f93          	addi	t6,t6,-568 # 20300 <begin_regstate>
    3540:	001fa223          	sw	ra,4(t6)
    3544:	005faa23          	sw	t0,20(t6)
    3548:	006fac23          	sw	t1,24(t6)
    354c:	028fa023          	sw	s0,32(t6)
    3550:	02afa423          	sw	a0,40(t6)
    3554:	0001d517          	auipc	a0,0x1d
    3558:	3e350513          	addi	a0,a0,995 # 20937 <end_regstate+0x537>
    355c:	c61fc0ef          	jal	1bc <FN_WriteStr>
    3560:	0001df97          	auipc	t6,0x1d
    3564:	da0f8f93          	addi	t6,t6,-608 # 20300 <begin_regstate>
    3568:	004fa083          	lw	ra,4(t6)
    356c:	014fa283          	lw	t0,20(t6)
    3570:	018fa303          	lw	t1,24(t6)
    3574:	020fa403          	lw	s0,32(t6)
    3578:	028fa503          	lw	a0,40(t6)
    357c:	0001d117          	auipc	sp,0x1d
    3580:	cc010113          	addi	sp,sp,-832 # 2023c <test_4_res>
    3584:	00000813          	li	a6,0
    3588:	00000093          	li	ra,0
    358c:	001807b3          	add	a5,a6,ra
    3590:	00f12023          	sw	a5,0(sp)
    3594:	0001d197          	auipc	gp,0x1d
    3598:	d6c18193          	addi	gp,gp,-660 # 20300 <begin_regstate>
    359c:	0011a223          	sw	ra,4(gp)
    35a0:	0051aa23          	sw	t0,20(gp)
    35a4:	0061ac23          	sw	t1,24(gp)
    35a8:	0281a023          	sw	s0,32(gp)
    35ac:	02a1a423          	sw	a0,40(gp)
    35b0:	00078413          	mv	s0,a5
    35b4:	00000293          	li	t0,0
    35b8:	2c540663          	beq	s0,t0,3884 <FN_WriteA0_common+0x3650>
    35bc:	0001df97          	auipc	t6,0x1d
    35c0:	d44f8f93          	addi	t6,t6,-700 # 20300 <begin_regstate>
    35c4:	001fa223          	sw	ra,4(t6)
    35c8:	005faa23          	sw	t0,20(t6)
    35cc:	006fac23          	sw	t1,24(t6)
    35d0:	028fa023          	sw	s0,32(t6)
    35d4:	02afa423          	sw	a0,40(t6)
    35d8:	0001d517          	auipc	a0,0x1d
    35dc:	37050513          	addi	a0,a0,880 # 20948 <end_regstate+0x548>
    35e0:	bddfc0ef          	jal	1bc <FN_WriteStr>
    35e4:	0001df97          	auipc	t6,0x1d
    35e8:	d1cf8f93          	addi	t6,t6,-740 # 20300 <begin_regstate>
    35ec:	004fa083          	lw	ra,4(t6)
    35f0:	014fa283          	lw	t0,20(t6)
    35f4:	018fa303          	lw	t1,24(t6)
    35f8:	020fa403          	lw	s0,32(t6)
    35fc:	028fa503          	lw	a0,40(t6)
    3600:	0001df97          	auipc	t6,0x1d
    3604:	d00f8f93          	addi	t6,t6,-768 # 20300 <begin_regstate>
    3608:	001fa223          	sw	ra,4(t6)
    360c:	005faa23          	sw	t0,20(t6)
    3610:	006fac23          	sw	t1,24(t6)
    3614:	028fa023          	sw	s0,32(t6)
    3618:	02afa423          	sw	a0,40(t6)
    361c:	0001d517          	auipc	a0,0x1d
    3620:	34750513          	addi	a0,a0,839 # 20963 <end_regstate+0x563>
    3624:	b99fc0ef          	jal	1bc <FN_WriteStr>
    3628:	0001df97          	auipc	t6,0x1d
    362c:	cd8f8f93          	addi	t6,t6,-808 # 20300 <begin_regstate>
    3630:	004fa083          	lw	ra,4(t6)
    3634:	014fa283          	lw	t0,20(t6)
    3638:	018fa303          	lw	t1,24(t6)
    363c:	020fa403          	lw	s0,32(t6)
    3640:	028fa503          	lw	a0,40(t6)
    3644:	0001df97          	auipc	t6,0x1d
    3648:	cbcf8f93          	addi	t6,t6,-836 # 20300 <begin_regstate>
    364c:	001fa223          	sw	ra,4(t6)
    3650:	005faa23          	sw	t0,20(t6)
    3654:	006fac23          	sw	t1,24(t6)
    3658:	028fa023          	sw	s0,32(t6)
    365c:	02afa423          	sw	a0,40(t6)
    3660:	0001d517          	auipc	a0,0x1d
    3664:	31250513          	addi	a0,a0,786 # 20972 <end_regstate+0x572>
    3668:	b55fc0ef          	jal	1bc <FN_WriteStr>
    366c:	0001df97          	auipc	t6,0x1d
    3670:	c94f8f93          	addi	t6,t6,-876 # 20300 <begin_regstate>
    3674:	004fa083          	lw	ra,4(t6)
    3678:	014fa283          	lw	t0,20(t6)
    367c:	018fa303          	lw	t1,24(t6)
    3680:	020fa403          	lw	s0,32(t6)
    3684:	028fa503          	lw	a0,40(t6)
    3688:	0001df97          	auipc	t6,0x1d
    368c:	c78f8f93          	addi	t6,t6,-904 # 20300 <begin_regstate>
    3690:	001fa223          	sw	ra,4(t6)
    3694:	005faa23          	sw	t0,20(t6)
    3698:	006fac23          	sw	t1,24(t6)
    369c:	028fa023          	sw	s0,32(t6)
    36a0:	02afa423          	sw	a0,40(t6)
    36a4:	0001d517          	auipc	a0,0x1d
    36a8:	2d650513          	addi	a0,a0,726 # 2097a <end_regstate+0x57a>
    36ac:	b11fc0ef          	jal	1bc <FN_WriteStr>
    36b0:	0001df97          	auipc	t6,0x1d
    36b4:	c50f8f93          	addi	t6,t6,-944 # 20300 <begin_regstate>
    36b8:	004fa083          	lw	ra,4(t6)
    36bc:	014fa283          	lw	t0,20(t6)
    36c0:	018fa303          	lw	t1,24(t6)
    36c4:	020fa403          	lw	s0,32(t6)
    36c8:	028fa503          	lw	a0,40(t6)
    36cc:	0001df97          	auipc	t6,0x1d
    36d0:	c34f8f93          	addi	t6,t6,-972 # 20300 <begin_regstate>
    36d4:	001fa223          	sw	ra,4(t6)
    36d8:	005faa23          	sw	t0,20(t6)
    36dc:	006fac23          	sw	t1,24(t6)
    36e0:	028fa023          	sw	s0,32(t6)
    36e4:	02afa423          	sw	a0,40(t6)
    36e8:	0001d517          	auipc	a0,0x1d
    36ec:	29550513          	addi	a0,a0,661 # 2097d <end_regstate+0x57d>
    36f0:	acdfc0ef          	jal	1bc <FN_WriteStr>
    36f4:	0001df97          	auipc	t6,0x1d
    36f8:	c0cf8f93          	addi	t6,t6,-1012 # 20300 <begin_regstate>
    36fc:	004fa083          	lw	ra,4(t6)
    3700:	014fa283          	lw	t0,20(t6)
    3704:	018fa303          	lw	t1,24(t6)
    3708:	020fa403          	lw	s0,32(t6)
    370c:	028fa503          	lw	a0,40(t6)
    3710:	0001df97          	auipc	t6,0x1d
    3714:	bf0f8f93          	addi	t6,t6,-1040 # 20300 <begin_regstate>
    3718:	001fa223          	sw	ra,4(t6)
    371c:	005faa23          	sw	t0,20(t6)
    3720:	006fac23          	sw	t1,24(t6)
    3724:	028fa023          	sw	s0,32(t6)
    3728:	02afa423          	sw	a0,40(t6)
    372c:	0001d517          	auipc	a0,0x1d
    3730:	25450513          	addi	a0,a0,596 # 20980 <end_regstate+0x580>
    3734:	a89fc0ef          	jal	1bc <FN_WriteStr>
    3738:	0001df97          	auipc	t6,0x1d
    373c:	bc8f8f93          	addi	t6,t6,-1080 # 20300 <begin_regstate>
    3740:	004fa083          	lw	ra,4(t6)
    3744:	014fa283          	lw	t0,20(t6)
    3748:	018fa303          	lw	t1,24(t6)
    374c:	020fa403          	lw	s0,32(t6)
    3750:	028fa503          	lw	a0,40(t6)
    3754:	0001df97          	auipc	t6,0x1d
    3758:	bacf8f93          	addi	t6,t6,-1108 # 20300 <begin_regstate>
    375c:	001fa223          	sw	ra,4(t6)
    3760:	005faa23          	sw	t0,20(t6)
    3764:	006fac23          	sw	t1,24(t6)
    3768:	028fa023          	sw	s0,32(t6)
    376c:	02afa423          	sw	a0,40(t6)
    3770:	0001d517          	auipc	a0,0x1d
    3774:	21450513          	addi	a0,a0,532 # 20984 <end_regstate+0x584>
    3778:	a45fc0ef          	jal	1bc <FN_WriteStr>
    377c:	0001df97          	auipc	t6,0x1d
    3780:	b84f8f93          	addi	t6,t6,-1148 # 20300 <begin_regstate>
    3784:	004fa083          	lw	ra,4(t6)
    3788:	014fa283          	lw	t0,20(t6)
    378c:	018fa303          	lw	t1,24(t6)
    3790:	020fa403          	lw	s0,32(t6)
    3794:	028fa503          	lw	a0,40(t6)
    3798:	00040513          	mv	a0,s0
    379c:	a41fc0ef          	jal	1dc <FN_WriteA0>
    37a0:	0001df97          	auipc	t6,0x1d
    37a4:	b60f8f93          	addi	t6,t6,-1184 # 20300 <begin_regstate>
    37a8:	001fa223          	sw	ra,4(t6)
    37ac:	005faa23          	sw	t0,20(t6)
    37b0:	006fac23          	sw	t1,24(t6)
    37b4:	028fa023          	sw	s0,32(t6)
    37b8:	02afa423          	sw	a0,40(t6)
    37bc:	0001d517          	auipc	a0,0x1d
    37c0:	1ca50513          	addi	a0,a0,458 # 20986 <end_regstate+0x586>
    37c4:	9f9fc0ef          	jal	1bc <FN_WriteStr>
    37c8:	0001df97          	auipc	t6,0x1d
    37cc:	b38f8f93          	addi	t6,t6,-1224 # 20300 <begin_regstate>
    37d0:	004fa083          	lw	ra,4(t6)
    37d4:	014fa283          	lw	t0,20(t6)
    37d8:	018fa303          	lw	t1,24(t6)
    37dc:	020fa403          	lw	s0,32(t6)
    37e0:	028fa503          	lw	a0,40(t6)
    37e4:	0001df97          	auipc	t6,0x1d
    37e8:	b1cf8f93          	addi	t6,t6,-1252 # 20300 <begin_regstate>
    37ec:	001fa223          	sw	ra,4(t6)
    37f0:	005faa23          	sw	t0,20(t6)
    37f4:	006fac23          	sw	t1,24(t6)
    37f8:	028fa023          	sw	s0,32(t6)
    37fc:	02afa423          	sw	a0,40(t6)
    3800:	0001d517          	auipc	a0,0x1d
    3804:	18c50513          	addi	a0,a0,396 # 2098c <end_regstate+0x58c>
    3808:	9b5fc0ef          	jal	1bc <FN_WriteStr>
    380c:	0001df97          	auipc	t6,0x1d
    3810:	af4f8f93          	addi	t6,t6,-1292 # 20300 <begin_regstate>
    3814:	004fa083          	lw	ra,4(t6)
    3818:	014fa283          	lw	t0,20(t6)
    381c:	018fa303          	lw	t1,24(t6)
    3820:	020fa403          	lw	s0,32(t6)
    3824:	028fa503          	lw	a0,40(t6)
    3828:	0001df97          	auipc	t6,0x1d
    382c:	ad8f8f93          	addi	t6,t6,-1320 # 20300 <begin_regstate>
    3830:	001fa223          	sw	ra,4(t6)
    3834:	005faa23          	sw	t0,20(t6)
    3838:	006fac23          	sw	t1,24(t6)
    383c:	028fa023          	sw	s0,32(t6)
    3840:	02afa423          	sw	a0,40(t6)
    3844:	0001d517          	auipc	a0,0x1d
    3848:	14c50513          	addi	a0,a0,332 # 20990 <end_regstate+0x590>
    384c:	971fc0ef          	jal	1bc <FN_WriteStr>
    3850:	0001df97          	auipc	t6,0x1d
    3854:	ab0f8f93          	addi	t6,t6,-1360 # 20300 <begin_regstate>
    3858:	004fa083          	lw	ra,4(t6)
    385c:	014fa283          	lw	t0,20(t6)
    3860:	018fa303          	lw	t1,24(t6)
    3864:	020fa403          	lw	s0,32(t6)
    3868:	028fa503          	lw	a0,40(t6)
    386c:	06400193          	li	gp,100
    3870:	0ff0000f          	fence
    3874:	00018063          	beqz	gp,3874 <FN_WriteA0_common+0x3640>
    3878:	00119193          	slli	gp,gp,0x1
    387c:	0011e193          	ori	gp,gp,1
    3880:	00000073          	ecall
    3884:	0001d197          	auipc	gp,0x1d
    3888:	a7c18193          	addi	gp,gp,-1412 # 20300 <begin_regstate>
    388c:	0041a083          	lw	ra,4(gp)
    3890:	0141a283          	lw	t0,20(gp)
    3894:	0181a303          	lw	t1,24(gp)
    3898:	0201a403          	lw	s0,32(gp)
    389c:	0281a503          	lw	a0,40(gp)
    38a0:	fff00793          	li	a5,-1
    38a4:	00000013          	nop
    38a8:	00078833          	add	a6,a5,zero
    38ac:	01012223          	sw	a6,4(sp)
    38b0:	0001d197          	auipc	gp,0x1d
    38b4:	a5018193          	addi	gp,gp,-1456 # 20300 <begin_regstate>
    38b8:	0011a223          	sw	ra,4(gp)
    38bc:	0051aa23          	sw	t0,20(gp)
    38c0:	0061ac23          	sw	t1,24(gp)
    38c4:	0281a023          	sw	s0,32(gp)
    38c8:	02a1a423          	sw	a0,40(gp)
    38cc:	00080413          	mv	s0,a6
    38d0:	fff00293          	li	t0,-1
    38d4:	2c540663          	beq	s0,t0,3ba0 <FN_WriteA0_common+0x396c>
    38d8:	0001df97          	auipc	t6,0x1d
    38dc:	a28f8f93          	addi	t6,t6,-1496 # 20300 <begin_regstate>
    38e0:	001fa223          	sw	ra,4(t6)
    38e4:	005faa23          	sw	t0,20(t6)
    38e8:	006fac23          	sw	t1,24(t6)
    38ec:	028fa023          	sw	s0,32(t6)
    38f0:	02afa423          	sw	a0,40(t6)
    38f4:	0001d517          	auipc	a0,0x1d
    38f8:	09e50513          	addi	a0,a0,158 # 20992 <end_regstate+0x592>
    38fc:	8c1fc0ef          	jal	1bc <FN_WriteStr>
    3900:	0001df97          	auipc	t6,0x1d
    3904:	a00f8f93          	addi	t6,t6,-1536 # 20300 <begin_regstate>
    3908:	004fa083          	lw	ra,4(t6)
    390c:	014fa283          	lw	t0,20(t6)
    3910:	018fa303          	lw	t1,24(t6)
    3914:	020fa403          	lw	s0,32(t6)
    3918:	028fa503          	lw	a0,40(t6)
    391c:	0001df97          	auipc	t6,0x1d
    3920:	9e4f8f93          	addi	t6,t6,-1564 # 20300 <begin_regstate>
    3924:	001fa223          	sw	ra,4(t6)
    3928:	005faa23          	sw	t0,20(t6)
    392c:	006fac23          	sw	t1,24(t6)
    3930:	028fa023          	sw	s0,32(t6)
    3934:	02afa423          	sw	a0,40(t6)
    3938:	0001d517          	auipc	a0,0x1d
    393c:	07550513          	addi	a0,a0,117 # 209ad <end_regstate+0x5ad>
    3940:	87dfc0ef          	jal	1bc <FN_WriteStr>
    3944:	0001df97          	auipc	t6,0x1d
    3948:	9bcf8f93          	addi	t6,t6,-1604 # 20300 <begin_regstate>
    394c:	004fa083          	lw	ra,4(t6)
    3950:	014fa283          	lw	t0,20(t6)
    3954:	018fa303          	lw	t1,24(t6)
    3958:	020fa403          	lw	s0,32(t6)
    395c:	028fa503          	lw	a0,40(t6)
    3960:	0001df97          	auipc	t6,0x1d
    3964:	9a0f8f93          	addi	t6,t6,-1632 # 20300 <begin_regstate>
    3968:	001fa223          	sw	ra,4(t6)
    396c:	005faa23          	sw	t0,20(t6)
    3970:	006fac23          	sw	t1,24(t6)
    3974:	028fa023          	sw	s0,32(t6)
    3978:	02afa423          	sw	a0,40(t6)
    397c:	0001d517          	auipc	a0,0x1d
    3980:	04050513          	addi	a0,a0,64 # 209bc <end_regstate+0x5bc>
    3984:	839fc0ef          	jal	1bc <FN_WriteStr>
    3988:	0001df97          	auipc	t6,0x1d
    398c:	978f8f93          	addi	t6,t6,-1672 # 20300 <begin_regstate>
    3990:	004fa083          	lw	ra,4(t6)
    3994:	014fa283          	lw	t0,20(t6)
    3998:	018fa303          	lw	t1,24(t6)
    399c:	020fa403          	lw	s0,32(t6)
    39a0:	028fa503          	lw	a0,40(t6)
    39a4:	0001df97          	auipc	t6,0x1d
    39a8:	95cf8f93          	addi	t6,t6,-1700 # 20300 <begin_regstate>
    39ac:	001fa223          	sw	ra,4(t6)
    39b0:	005faa23          	sw	t0,20(t6)
    39b4:	006fac23          	sw	t1,24(t6)
    39b8:	028fa023          	sw	s0,32(t6)
    39bc:	02afa423          	sw	a0,40(t6)
    39c0:	0001d517          	auipc	a0,0x1d
    39c4:	00450513          	addi	a0,a0,4 # 209c4 <end_regstate+0x5c4>
    39c8:	ff4fc0ef          	jal	1bc <FN_WriteStr>
    39cc:	0001df97          	auipc	t6,0x1d
    39d0:	934f8f93          	addi	t6,t6,-1740 # 20300 <begin_regstate>
    39d4:	004fa083          	lw	ra,4(t6)
    39d8:	014fa283          	lw	t0,20(t6)
    39dc:	018fa303          	lw	t1,24(t6)
    39e0:	020fa403          	lw	s0,32(t6)
    39e4:	028fa503          	lw	a0,40(t6)
    39e8:	0001df97          	auipc	t6,0x1d
    39ec:	918f8f93          	addi	t6,t6,-1768 # 20300 <begin_regstate>
    39f0:	001fa223          	sw	ra,4(t6)
    39f4:	005faa23          	sw	t0,20(t6)
    39f8:	006fac23          	sw	t1,24(t6)
    39fc:	028fa023          	sw	s0,32(t6)
    3a00:	02afa423          	sw	a0,40(t6)
    3a04:	0001d517          	auipc	a0,0x1d
    3a08:	fc350513          	addi	a0,a0,-61 # 209c7 <end_regstate+0x5c7>
    3a0c:	fb0fc0ef          	jal	1bc <FN_WriteStr>
    3a10:	0001df97          	auipc	t6,0x1d
    3a14:	8f0f8f93          	addi	t6,t6,-1808 # 20300 <begin_regstate>
    3a18:	004fa083          	lw	ra,4(t6)
    3a1c:	014fa283          	lw	t0,20(t6)
    3a20:	018fa303          	lw	t1,24(t6)
    3a24:	020fa403          	lw	s0,32(t6)
    3a28:	028fa503          	lw	a0,40(t6)
    3a2c:	0001df97          	auipc	t6,0x1d
    3a30:	8d4f8f93          	addi	t6,t6,-1836 # 20300 <begin_regstate>
    3a34:	001fa223          	sw	ra,4(t6)
    3a38:	005faa23          	sw	t0,20(t6)
    3a3c:	006fac23          	sw	t1,24(t6)
    3a40:	028fa023          	sw	s0,32(t6)
    3a44:	02afa423          	sw	a0,40(t6)
    3a48:	0001d517          	auipc	a0,0x1d
    3a4c:	f8250513          	addi	a0,a0,-126 # 209ca <end_regstate+0x5ca>
    3a50:	f6cfc0ef          	jal	1bc <FN_WriteStr>
    3a54:	0001df97          	auipc	t6,0x1d
    3a58:	8acf8f93          	addi	t6,t6,-1876 # 20300 <begin_regstate>
    3a5c:	004fa083          	lw	ra,4(t6)
    3a60:	014fa283          	lw	t0,20(t6)
    3a64:	018fa303          	lw	t1,24(t6)
    3a68:	020fa403          	lw	s0,32(t6)
    3a6c:	028fa503          	lw	a0,40(t6)
    3a70:	0001df97          	auipc	t6,0x1d
    3a74:	890f8f93          	addi	t6,t6,-1904 # 20300 <begin_regstate>
    3a78:	001fa223          	sw	ra,4(t6)
    3a7c:	005faa23          	sw	t0,20(t6)
    3a80:	006fac23          	sw	t1,24(t6)
    3a84:	028fa023          	sw	s0,32(t6)
    3a88:	02afa423          	sw	a0,40(t6)
    3a8c:	0001d517          	auipc	a0,0x1d
    3a90:	f4250513          	addi	a0,a0,-190 # 209ce <end_regstate+0x5ce>
    3a94:	f28fc0ef          	jal	1bc <FN_WriteStr>
    3a98:	0001df97          	auipc	t6,0x1d
    3a9c:	868f8f93          	addi	t6,t6,-1944 # 20300 <begin_regstate>
    3aa0:	004fa083          	lw	ra,4(t6)
    3aa4:	014fa283          	lw	t0,20(t6)
    3aa8:	018fa303          	lw	t1,24(t6)
    3aac:	020fa403          	lw	s0,32(t6)
    3ab0:	028fa503          	lw	a0,40(t6)
    3ab4:	00040513          	mv	a0,s0
    3ab8:	f24fc0ef          	jal	1dc <FN_WriteA0>
    3abc:	0001df97          	auipc	t6,0x1d
    3ac0:	844f8f93          	addi	t6,t6,-1980 # 20300 <begin_regstate>
    3ac4:	001fa223          	sw	ra,4(t6)
    3ac8:	005faa23          	sw	t0,20(t6)
    3acc:	006fac23          	sw	t1,24(t6)
    3ad0:	028fa023          	sw	s0,32(t6)
    3ad4:	02afa423          	sw	a0,40(t6)
    3ad8:	0001d517          	auipc	a0,0x1d
    3adc:	ef850513          	addi	a0,a0,-264 # 209d0 <end_regstate+0x5d0>
    3ae0:	edcfc0ef          	jal	1bc <FN_WriteStr>
    3ae4:	0001df97          	auipc	t6,0x1d
    3ae8:	81cf8f93          	addi	t6,t6,-2020 # 20300 <begin_regstate>
    3aec:	004fa083          	lw	ra,4(t6)
    3af0:	014fa283          	lw	t0,20(t6)
    3af4:	018fa303          	lw	t1,24(t6)
    3af8:	020fa403          	lw	s0,32(t6)
    3afc:	028fa503          	lw	a0,40(t6)
    3b00:	0001df97          	auipc	t6,0x1d
    3b04:	800f8f93          	addi	t6,t6,-2048 # 20300 <begin_regstate>
    3b08:	001fa223          	sw	ra,4(t6)
    3b0c:	005faa23          	sw	t0,20(t6)
    3b10:	006fac23          	sw	t1,24(t6)
    3b14:	028fa023          	sw	s0,32(t6)
    3b18:	02afa423          	sw	a0,40(t6)
    3b1c:	0001d517          	auipc	a0,0x1d
    3b20:	eba50513          	addi	a0,a0,-326 # 209d6 <end_regstate+0x5d6>
    3b24:	e98fc0ef          	jal	1bc <FN_WriteStr>
    3b28:	0001cf97          	auipc	t6,0x1c
    3b2c:	7d8f8f93          	addi	t6,t6,2008 # 20300 <begin_regstate>
    3b30:	004fa083          	lw	ra,4(t6)
    3b34:	014fa283          	lw	t0,20(t6)
    3b38:	018fa303          	lw	t1,24(t6)
    3b3c:	020fa403          	lw	s0,32(t6)
    3b40:	028fa503          	lw	a0,40(t6)
    3b44:	0001cf97          	auipc	t6,0x1c
    3b48:	7bcf8f93          	addi	t6,t6,1980 # 20300 <begin_regstate>
    3b4c:	001fa223          	sw	ra,4(t6)
    3b50:	005faa23          	sw	t0,20(t6)
    3b54:	006fac23          	sw	t1,24(t6)
    3b58:	028fa023          	sw	s0,32(t6)
    3b5c:	02afa423          	sw	a0,40(t6)
    3b60:	0001d517          	auipc	a0,0x1d
    3b64:	e8150513          	addi	a0,a0,-383 # 209e1 <end_regstate+0x5e1>
    3b68:	e54fc0ef          	jal	1bc <FN_WriteStr>
    3b6c:	0001cf97          	auipc	t6,0x1c
    3b70:	794f8f93          	addi	t6,t6,1940 # 20300 <begin_regstate>
    3b74:	004fa083          	lw	ra,4(t6)
    3b78:	014fa283          	lw	t0,20(t6)
    3b7c:	018fa303          	lw	t1,24(t6)
    3b80:	020fa403          	lw	s0,32(t6)
    3b84:	028fa503          	lw	a0,40(t6)
    3b88:	06400193          	li	gp,100
    3b8c:	0ff0000f          	fence
    3b90:	00018063          	beqz	gp,3b90 <FN_WriteA0_common+0x395c>
    3b94:	00119193          	slli	gp,gp,0x1
    3b98:	0011e193          	ori	gp,gp,1
    3b9c:	00000073          	ecall
    3ba0:	0001c197          	auipc	gp,0x1c
    3ba4:	76018193          	addi	gp,gp,1888 # 20300 <begin_regstate>
    3ba8:	0041a083          	lw	ra,4(gp)
    3bac:	0141a283          	lw	t0,20(gp)
    3bb0:	0181a303          	lw	t1,24(gp)
    3bb4:	0201a403          	lw	s0,32(gp)
    3bb8:	0281a503          	lw	a0,40(gp)
    3bbc:	00100713          	li	a4,1
    3bc0:	80100f93          	li	t6,-2047
    3bc4:	01f708b3          	add	a7,a4,t6
    3bc8:	01112423          	sw	a7,8(sp)
    3bcc:	0001c197          	auipc	gp,0x1c
    3bd0:	73418193          	addi	gp,gp,1844 # 20300 <begin_regstate>
    3bd4:	0011a223          	sw	ra,4(gp)
    3bd8:	0051aa23          	sw	t0,20(gp)
    3bdc:	0061ac23          	sw	t1,24(gp)
    3be0:	0281a023          	sw	s0,32(gp)
    3be4:	02a1a423          	sw	a0,40(gp)
    3be8:	00088413          	mv	s0,a7
    3bec:	80200293          	li	t0,-2046
    3bf0:	2c540663          	beq	s0,t0,3ebc <FN_WriteA0_common+0x3c88>
    3bf4:	0001cf97          	auipc	t6,0x1c
    3bf8:	70cf8f93          	addi	t6,t6,1804 # 20300 <begin_regstate>
    3bfc:	001fa223          	sw	ra,4(t6)
    3c00:	005faa23          	sw	t0,20(t6)
    3c04:	006fac23          	sw	t1,24(t6)
    3c08:	028fa023          	sw	s0,32(t6)
    3c0c:	02afa423          	sw	a0,40(t6)
    3c10:	0001d517          	auipc	a0,0x1d
    3c14:	dd350513          	addi	a0,a0,-557 # 209e3 <end_regstate+0x5e3>
    3c18:	da4fc0ef          	jal	1bc <FN_WriteStr>
    3c1c:	0001cf97          	auipc	t6,0x1c
    3c20:	6e4f8f93          	addi	t6,t6,1764 # 20300 <begin_regstate>
    3c24:	004fa083          	lw	ra,4(t6)
    3c28:	014fa283          	lw	t0,20(t6)
    3c2c:	018fa303          	lw	t1,24(t6)
    3c30:	020fa403          	lw	s0,32(t6)
    3c34:	028fa503          	lw	a0,40(t6)
    3c38:	0001cf97          	auipc	t6,0x1c
    3c3c:	6c8f8f93          	addi	t6,t6,1736 # 20300 <begin_regstate>
    3c40:	001fa223          	sw	ra,4(t6)
    3c44:	005faa23          	sw	t0,20(t6)
    3c48:	006fac23          	sw	t1,24(t6)
    3c4c:	028fa023          	sw	s0,32(t6)
    3c50:	02afa423          	sw	a0,40(t6)
    3c54:	0001d517          	auipc	a0,0x1d
    3c58:	daa50513          	addi	a0,a0,-598 # 209fe <end_regstate+0x5fe>
    3c5c:	d60fc0ef          	jal	1bc <FN_WriteStr>
    3c60:	0001cf97          	auipc	t6,0x1c
    3c64:	6a0f8f93          	addi	t6,t6,1696 # 20300 <begin_regstate>
    3c68:	004fa083          	lw	ra,4(t6)
    3c6c:	014fa283          	lw	t0,20(t6)
    3c70:	018fa303          	lw	t1,24(t6)
    3c74:	020fa403          	lw	s0,32(t6)
    3c78:	028fa503          	lw	a0,40(t6)
    3c7c:	0001cf97          	auipc	t6,0x1c
    3c80:	684f8f93          	addi	t6,t6,1668 # 20300 <begin_regstate>
    3c84:	001fa223          	sw	ra,4(t6)
    3c88:	005faa23          	sw	t0,20(t6)
    3c8c:	006fac23          	sw	t1,24(t6)
    3c90:	028fa023          	sw	s0,32(t6)
    3c94:	02afa423          	sw	a0,40(t6)
    3c98:	0001d517          	auipc	a0,0x1d
    3c9c:	d7550513          	addi	a0,a0,-651 # 20a0d <end_regstate+0x60d>
    3ca0:	d1cfc0ef          	jal	1bc <FN_WriteStr>
    3ca4:	0001cf97          	auipc	t6,0x1c
    3ca8:	65cf8f93          	addi	t6,t6,1628 # 20300 <begin_regstate>
    3cac:	004fa083          	lw	ra,4(t6)
    3cb0:	014fa283          	lw	t0,20(t6)
    3cb4:	018fa303          	lw	t1,24(t6)
    3cb8:	020fa403          	lw	s0,32(t6)
    3cbc:	028fa503          	lw	a0,40(t6)
    3cc0:	0001cf97          	auipc	t6,0x1c
    3cc4:	640f8f93          	addi	t6,t6,1600 # 20300 <begin_regstate>
    3cc8:	001fa223          	sw	ra,4(t6)
    3ccc:	005faa23          	sw	t0,20(t6)
    3cd0:	006fac23          	sw	t1,24(t6)
    3cd4:	028fa023          	sw	s0,32(t6)
    3cd8:	02afa423          	sw	a0,40(t6)
    3cdc:	0001d517          	auipc	a0,0x1d
    3ce0:	d3950513          	addi	a0,a0,-711 # 20a15 <end_regstate+0x615>
    3ce4:	cd8fc0ef          	jal	1bc <FN_WriteStr>
    3ce8:	0001cf97          	auipc	t6,0x1c
    3cec:	618f8f93          	addi	t6,t6,1560 # 20300 <begin_regstate>
    3cf0:	004fa083          	lw	ra,4(t6)
    3cf4:	014fa283          	lw	t0,20(t6)
    3cf8:	018fa303          	lw	t1,24(t6)
    3cfc:	020fa403          	lw	s0,32(t6)
    3d00:	028fa503          	lw	a0,40(t6)
    3d04:	0001cf97          	auipc	t6,0x1c
    3d08:	5fcf8f93          	addi	t6,t6,1532 # 20300 <begin_regstate>
    3d0c:	001fa223          	sw	ra,4(t6)
    3d10:	005faa23          	sw	t0,20(t6)
    3d14:	006fac23          	sw	t1,24(t6)
    3d18:	028fa023          	sw	s0,32(t6)
    3d1c:	02afa423          	sw	a0,40(t6)
    3d20:	0001d517          	auipc	a0,0x1d
    3d24:	cf850513          	addi	a0,a0,-776 # 20a18 <end_regstate+0x618>
    3d28:	c94fc0ef          	jal	1bc <FN_WriteStr>
    3d2c:	0001cf97          	auipc	t6,0x1c
    3d30:	5d4f8f93          	addi	t6,t6,1492 # 20300 <begin_regstate>
    3d34:	004fa083          	lw	ra,4(t6)
    3d38:	014fa283          	lw	t0,20(t6)
    3d3c:	018fa303          	lw	t1,24(t6)
    3d40:	020fa403          	lw	s0,32(t6)
    3d44:	028fa503          	lw	a0,40(t6)
    3d48:	0001cf97          	auipc	t6,0x1c
    3d4c:	5b8f8f93          	addi	t6,t6,1464 # 20300 <begin_regstate>
    3d50:	001fa223          	sw	ra,4(t6)
    3d54:	005faa23          	sw	t0,20(t6)
    3d58:	006fac23          	sw	t1,24(t6)
    3d5c:	028fa023          	sw	s0,32(t6)
    3d60:	02afa423          	sw	a0,40(t6)
    3d64:	0001d517          	auipc	a0,0x1d
    3d68:	cb750513          	addi	a0,a0,-841 # 20a1b <end_regstate+0x61b>
    3d6c:	c50fc0ef          	jal	1bc <FN_WriteStr>
    3d70:	0001cf97          	auipc	t6,0x1c
    3d74:	590f8f93          	addi	t6,t6,1424 # 20300 <begin_regstate>
    3d78:	004fa083          	lw	ra,4(t6)
    3d7c:	014fa283          	lw	t0,20(t6)
    3d80:	018fa303          	lw	t1,24(t6)
    3d84:	020fa403          	lw	s0,32(t6)
    3d88:	028fa503          	lw	a0,40(t6)
    3d8c:	0001cf97          	auipc	t6,0x1c
    3d90:	574f8f93          	addi	t6,t6,1396 # 20300 <begin_regstate>
    3d94:	001fa223          	sw	ra,4(t6)
    3d98:	005faa23          	sw	t0,20(t6)
    3d9c:	006fac23          	sw	t1,24(t6)
    3da0:	028fa023          	sw	s0,32(t6)
    3da4:	02afa423          	sw	a0,40(t6)
    3da8:	0001d517          	auipc	a0,0x1d
    3dac:	c7750513          	addi	a0,a0,-905 # 20a1f <end_regstate+0x61f>
    3db0:	c0cfc0ef          	jal	1bc <FN_WriteStr>
    3db4:	0001cf97          	auipc	t6,0x1c
    3db8:	54cf8f93          	addi	t6,t6,1356 # 20300 <begin_regstate>
    3dbc:	004fa083          	lw	ra,4(t6)
    3dc0:	014fa283          	lw	t0,20(t6)
    3dc4:	018fa303          	lw	t1,24(t6)
    3dc8:	020fa403          	lw	s0,32(t6)
    3dcc:	028fa503          	lw	a0,40(t6)
    3dd0:	00040513          	mv	a0,s0
    3dd4:	c08fc0ef          	jal	1dc <FN_WriteA0>
    3dd8:	0001cf97          	auipc	t6,0x1c
    3ddc:	528f8f93          	addi	t6,t6,1320 # 20300 <begin_regstate>
    3de0:	001fa223          	sw	ra,4(t6)
    3de4:	005faa23          	sw	t0,20(t6)
    3de8:	006fac23          	sw	t1,24(t6)
    3dec:	028fa023          	sw	s0,32(t6)
    3df0:	02afa423          	sw	a0,40(t6)
    3df4:	0001d517          	auipc	a0,0x1d
    3df8:	c2d50513          	addi	a0,a0,-979 # 20a21 <end_regstate+0x621>
    3dfc:	bc0fc0ef          	jal	1bc <FN_WriteStr>
    3e00:	0001cf97          	auipc	t6,0x1c
    3e04:	500f8f93          	addi	t6,t6,1280 # 20300 <begin_regstate>
    3e08:	004fa083          	lw	ra,4(t6)
    3e0c:	014fa283          	lw	t0,20(t6)
    3e10:	018fa303          	lw	t1,24(t6)
    3e14:	020fa403          	lw	s0,32(t6)
    3e18:	028fa503          	lw	a0,40(t6)
    3e1c:	0001cf97          	auipc	t6,0x1c
    3e20:	4e4f8f93          	addi	t6,t6,1252 # 20300 <begin_regstate>
    3e24:	001fa223          	sw	ra,4(t6)
    3e28:	005faa23          	sw	t0,20(t6)
    3e2c:	006fac23          	sw	t1,24(t6)
    3e30:	028fa023          	sw	s0,32(t6)
    3e34:	02afa423          	sw	a0,40(t6)
    3e38:	0001d517          	auipc	a0,0x1d
    3e3c:	bef50513          	addi	a0,a0,-1041 # 20a27 <end_regstate+0x627>
    3e40:	b7cfc0ef          	jal	1bc <FN_WriteStr>
    3e44:	0001cf97          	auipc	t6,0x1c
    3e48:	4bcf8f93          	addi	t6,t6,1212 # 20300 <begin_regstate>
    3e4c:	004fa083          	lw	ra,4(t6)
    3e50:	014fa283          	lw	t0,20(t6)
    3e54:	018fa303          	lw	t1,24(t6)
    3e58:	020fa403          	lw	s0,32(t6)
    3e5c:	028fa503          	lw	a0,40(t6)
    3e60:	0001cf97          	auipc	t6,0x1c
    3e64:	4a0f8f93          	addi	t6,t6,1184 # 20300 <begin_regstate>
    3e68:	001fa223          	sw	ra,4(t6)
    3e6c:	005faa23          	sw	t0,20(t6)
    3e70:	006fac23          	sw	t1,24(t6)
    3e74:	028fa023          	sw	s0,32(t6)
    3e78:	02afa423          	sw	a0,40(t6)
    3e7c:	0001d517          	auipc	a0,0x1d
    3e80:	bb650513          	addi	a0,a0,-1098 # 20a32 <end_regstate+0x632>
    3e84:	b38fc0ef          	jal	1bc <FN_WriteStr>
    3e88:	0001cf97          	auipc	t6,0x1c
    3e8c:	478f8f93          	addi	t6,t6,1144 # 20300 <begin_regstate>
    3e90:	004fa083          	lw	ra,4(t6)
    3e94:	014fa283          	lw	t0,20(t6)
    3e98:	018fa303          	lw	t1,24(t6)
    3e9c:	020fa403          	lw	s0,32(t6)
    3ea0:	028fa503          	lw	a0,40(t6)
    3ea4:	06400193          	li	gp,100
    3ea8:	0ff0000f          	fence
    3eac:	00018063          	beqz	gp,3eac <FN_WriteA0_common+0x3c78>
    3eb0:	00119193          	slli	gp,gp,0x1
    3eb4:	0011e193          	ori	gp,gp,1
    3eb8:	00000073          	ecall
    3ebc:	0001c197          	auipc	gp,0x1c
    3ec0:	44418193          	addi	gp,gp,1092 # 20300 <begin_regstate>
    3ec4:	0041a083          	lw	ra,4(gp)
    3ec8:	0141a283          	lw	t0,20(gp)
    3ecc:	0181a303          	lw	t1,24(gp)
    3ed0:	0201a403          	lw	s0,32(gp)
    3ed4:	0281a503          	lw	a0,40(gp)
    3ed8:	00000693          	li	a3,0
    3edc:	fff00f13          	li	t5,-1
    3ee0:	01e68933          	add	s2,a3,t5
    3ee4:	01212623          	sw	s2,12(sp)
    3ee8:	0001c197          	auipc	gp,0x1c
    3eec:	41818193          	addi	gp,gp,1048 # 20300 <begin_regstate>
    3ef0:	0011a223          	sw	ra,4(gp)
    3ef4:	0051aa23          	sw	t0,20(gp)
    3ef8:	0061ac23          	sw	t1,24(gp)
    3efc:	0281a023          	sw	s0,32(gp)
    3f00:	02a1a423          	sw	a0,40(gp)
    3f04:	00090413          	mv	s0,s2
    3f08:	fff00293          	li	t0,-1
    3f0c:	2c540663          	beq	s0,t0,41d8 <FN_WriteA0_common+0x3fa4>
    3f10:	0001cf97          	auipc	t6,0x1c
    3f14:	3f0f8f93          	addi	t6,t6,1008 # 20300 <begin_regstate>
    3f18:	001fa223          	sw	ra,4(t6)
    3f1c:	005faa23          	sw	t0,20(t6)
    3f20:	006fac23          	sw	t1,24(t6)
    3f24:	028fa023          	sw	s0,32(t6)
    3f28:	02afa423          	sw	a0,40(t6)
    3f2c:	0001d517          	auipc	a0,0x1d
    3f30:	b0850513          	addi	a0,a0,-1272 # 20a34 <end_regstate+0x634>
    3f34:	a88fc0ef          	jal	1bc <FN_WriteStr>
    3f38:	0001cf97          	auipc	t6,0x1c
    3f3c:	3c8f8f93          	addi	t6,t6,968 # 20300 <begin_regstate>
    3f40:	004fa083          	lw	ra,4(t6)
    3f44:	014fa283          	lw	t0,20(t6)
    3f48:	018fa303          	lw	t1,24(t6)
    3f4c:	020fa403          	lw	s0,32(t6)
    3f50:	028fa503          	lw	a0,40(t6)
    3f54:	0001cf97          	auipc	t6,0x1c
    3f58:	3acf8f93          	addi	t6,t6,940 # 20300 <begin_regstate>
    3f5c:	001fa223          	sw	ra,4(t6)
    3f60:	005faa23          	sw	t0,20(t6)
    3f64:	006fac23          	sw	t1,24(t6)
    3f68:	028fa023          	sw	s0,32(t6)
    3f6c:	02afa423          	sw	a0,40(t6)
    3f70:	0001d517          	auipc	a0,0x1d
    3f74:	adf50513          	addi	a0,a0,-1313 # 20a4f <end_regstate+0x64f>
    3f78:	a44fc0ef          	jal	1bc <FN_WriteStr>
    3f7c:	0001cf97          	auipc	t6,0x1c
    3f80:	384f8f93          	addi	t6,t6,900 # 20300 <begin_regstate>
    3f84:	004fa083          	lw	ra,4(t6)
    3f88:	014fa283          	lw	t0,20(t6)
    3f8c:	018fa303          	lw	t1,24(t6)
    3f90:	020fa403          	lw	s0,32(t6)
    3f94:	028fa503          	lw	a0,40(t6)
    3f98:	0001cf97          	auipc	t6,0x1c
    3f9c:	368f8f93          	addi	t6,t6,872 # 20300 <begin_regstate>
    3fa0:	001fa223          	sw	ra,4(t6)
    3fa4:	005faa23          	sw	t0,20(t6)
    3fa8:	006fac23          	sw	t1,24(t6)
    3fac:	028fa023          	sw	s0,32(t6)
    3fb0:	02afa423          	sw	a0,40(t6)
    3fb4:	0001d517          	auipc	a0,0x1d
    3fb8:	aaa50513          	addi	a0,a0,-1366 # 20a5e <end_regstate+0x65e>
    3fbc:	a00fc0ef          	jal	1bc <FN_WriteStr>
    3fc0:	0001cf97          	auipc	t6,0x1c
    3fc4:	340f8f93          	addi	t6,t6,832 # 20300 <begin_regstate>
    3fc8:	004fa083          	lw	ra,4(t6)
    3fcc:	014fa283          	lw	t0,20(t6)
    3fd0:	018fa303          	lw	t1,24(t6)
    3fd4:	020fa403          	lw	s0,32(t6)
    3fd8:	028fa503          	lw	a0,40(t6)
    3fdc:	0001cf97          	auipc	t6,0x1c
    3fe0:	324f8f93          	addi	t6,t6,804 # 20300 <begin_regstate>
    3fe4:	001fa223          	sw	ra,4(t6)
    3fe8:	005faa23          	sw	t0,20(t6)
    3fec:	006fac23          	sw	t1,24(t6)
    3ff0:	028fa023          	sw	s0,32(t6)
    3ff4:	02afa423          	sw	a0,40(t6)
    3ff8:	0001d517          	auipc	a0,0x1d
    3ffc:	a6e50513          	addi	a0,a0,-1426 # 20a66 <end_regstate+0x666>
    4000:	9bcfc0ef          	jal	1bc <FN_WriteStr>
    4004:	0001cf97          	auipc	t6,0x1c
    4008:	2fcf8f93          	addi	t6,t6,764 # 20300 <begin_regstate>
    400c:	004fa083          	lw	ra,4(t6)
    4010:	014fa283          	lw	t0,20(t6)
    4014:	018fa303          	lw	t1,24(t6)
    4018:	020fa403          	lw	s0,32(t6)
    401c:	028fa503          	lw	a0,40(t6)
    4020:	0001cf97          	auipc	t6,0x1c
    4024:	2e0f8f93          	addi	t6,t6,736 # 20300 <begin_regstate>
    4028:	001fa223          	sw	ra,4(t6)
    402c:	005faa23          	sw	t0,20(t6)
    4030:	006fac23          	sw	t1,24(t6)
    4034:	028fa023          	sw	s0,32(t6)
    4038:	02afa423          	sw	a0,40(t6)
    403c:	0001d517          	auipc	a0,0x1d
    4040:	a2d50513          	addi	a0,a0,-1491 # 20a69 <end_regstate+0x669>
    4044:	978fc0ef          	jal	1bc <FN_WriteStr>
    4048:	0001cf97          	auipc	t6,0x1c
    404c:	2b8f8f93          	addi	t6,t6,696 # 20300 <begin_regstate>
    4050:	004fa083          	lw	ra,4(t6)
    4054:	014fa283          	lw	t0,20(t6)
    4058:	018fa303          	lw	t1,24(t6)
    405c:	020fa403          	lw	s0,32(t6)
    4060:	028fa503          	lw	a0,40(t6)
    4064:	0001cf97          	auipc	t6,0x1c
    4068:	29cf8f93          	addi	t6,t6,668 # 20300 <begin_regstate>
    406c:	001fa223          	sw	ra,4(t6)
    4070:	005faa23          	sw	t0,20(t6)
    4074:	006fac23          	sw	t1,24(t6)
    4078:	028fa023          	sw	s0,32(t6)
    407c:	02afa423          	sw	a0,40(t6)
    4080:	0001d517          	auipc	a0,0x1d
    4084:	9ec50513          	addi	a0,a0,-1556 # 20a6c <end_regstate+0x66c>
    4088:	934fc0ef          	jal	1bc <FN_WriteStr>
    408c:	0001cf97          	auipc	t6,0x1c
    4090:	274f8f93          	addi	t6,t6,628 # 20300 <begin_regstate>
    4094:	004fa083          	lw	ra,4(t6)
    4098:	014fa283          	lw	t0,20(t6)
    409c:	018fa303          	lw	t1,24(t6)
    40a0:	020fa403          	lw	s0,32(t6)
    40a4:	028fa503          	lw	a0,40(t6)
    40a8:	0001cf97          	auipc	t6,0x1c
    40ac:	258f8f93          	addi	t6,t6,600 # 20300 <begin_regstate>
    40b0:	001fa223          	sw	ra,4(t6)
    40b4:	005faa23          	sw	t0,20(t6)
    40b8:	006fac23          	sw	t1,24(t6)
    40bc:	028fa023          	sw	s0,32(t6)
    40c0:	02afa423          	sw	a0,40(t6)
    40c4:	0001d517          	auipc	a0,0x1d
    40c8:	9ac50513          	addi	a0,a0,-1620 # 20a70 <end_regstate+0x670>
    40cc:	8f0fc0ef          	jal	1bc <FN_WriteStr>
    40d0:	0001cf97          	auipc	t6,0x1c
    40d4:	230f8f93          	addi	t6,t6,560 # 20300 <begin_regstate>
    40d8:	004fa083          	lw	ra,4(t6)
    40dc:	014fa283          	lw	t0,20(t6)
    40e0:	018fa303          	lw	t1,24(t6)
    40e4:	020fa403          	lw	s0,32(t6)
    40e8:	028fa503          	lw	a0,40(t6)
    40ec:	00040513          	mv	a0,s0
    40f0:	8ecfc0ef          	jal	1dc <FN_WriteA0>
    40f4:	0001cf97          	auipc	t6,0x1c
    40f8:	20cf8f93          	addi	t6,t6,524 # 20300 <begin_regstate>
    40fc:	001fa223          	sw	ra,4(t6)
    4100:	005faa23          	sw	t0,20(t6)
    4104:	006fac23          	sw	t1,24(t6)
    4108:	028fa023          	sw	s0,32(t6)
    410c:	02afa423          	sw	a0,40(t6)
    4110:	0001d517          	auipc	a0,0x1d
    4114:	96250513          	addi	a0,a0,-1694 # 20a72 <end_regstate+0x672>
    4118:	8a4fc0ef          	jal	1bc <FN_WriteStr>
    411c:	0001cf97          	auipc	t6,0x1c
    4120:	1e4f8f93          	addi	t6,t6,484 # 20300 <begin_regstate>
    4124:	004fa083          	lw	ra,4(t6)
    4128:	014fa283          	lw	t0,20(t6)
    412c:	018fa303          	lw	t1,24(t6)
    4130:	020fa403          	lw	s0,32(t6)
    4134:	028fa503          	lw	a0,40(t6)
    4138:	0001cf97          	auipc	t6,0x1c
    413c:	1c8f8f93          	addi	t6,t6,456 # 20300 <begin_regstate>
    4140:	001fa223          	sw	ra,4(t6)
    4144:	005faa23          	sw	t0,20(t6)
    4148:	006fac23          	sw	t1,24(t6)
    414c:	028fa023          	sw	s0,32(t6)
    4150:	02afa423          	sw	a0,40(t6)
    4154:	0001d517          	auipc	a0,0x1d
    4158:	92450513          	addi	a0,a0,-1756 # 20a78 <end_regstate+0x678>
    415c:	860fc0ef          	jal	1bc <FN_WriteStr>
    4160:	0001cf97          	auipc	t6,0x1c
    4164:	1a0f8f93          	addi	t6,t6,416 # 20300 <begin_regstate>
    4168:	004fa083          	lw	ra,4(t6)
    416c:	014fa283          	lw	t0,20(t6)
    4170:	018fa303          	lw	t1,24(t6)
    4174:	020fa403          	lw	s0,32(t6)
    4178:	028fa503          	lw	a0,40(t6)
    417c:	0001cf97          	auipc	t6,0x1c
    4180:	184f8f93          	addi	t6,t6,388 # 20300 <begin_regstate>
    4184:	001fa223          	sw	ra,4(t6)
    4188:	005faa23          	sw	t0,20(t6)
    418c:	006fac23          	sw	t1,24(t6)
    4190:	028fa023          	sw	s0,32(t6)
    4194:	02afa423          	sw	a0,40(t6)
    4198:	0001d517          	auipc	a0,0x1d
    419c:	8eb50513          	addi	a0,a0,-1813 # 20a83 <end_regstate+0x683>
    41a0:	81cfc0ef          	jal	1bc <FN_WriteStr>
    41a4:	0001cf97          	auipc	t6,0x1c
    41a8:	15cf8f93          	addi	t6,t6,348 # 20300 <begin_regstate>
    41ac:	004fa083          	lw	ra,4(t6)
    41b0:	014fa283          	lw	t0,20(t6)
    41b4:	018fa303          	lw	t1,24(t6)
    41b8:	020fa403          	lw	s0,32(t6)
    41bc:	028fa503          	lw	a0,40(t6)
    41c0:	06400193          	li	gp,100
    41c4:	0ff0000f          	fence
    41c8:	00018063          	beqz	gp,41c8 <FN_WriteA0_common+0x3f94>
    41cc:	00119193          	slli	gp,gp,0x1
    41d0:	0011e193          	ori	gp,gp,1
    41d4:	00000073          	ecall
    41d8:	0001c197          	auipc	gp,0x1c
    41dc:	12818193          	addi	gp,gp,296 # 20300 <begin_regstate>
    41e0:	0041a083          	lw	ra,4(gp)
    41e4:	0141a283          	lw	t0,20(gp)
    41e8:	0181a303          	lw	t1,24(gp)
    41ec:	0201a403          	lw	s0,32(gp)
    41f0:	0281a503          	lw	a0,40(gp)
    41f4:	7ff00613          	li	a2,2047
    41f8:	fffffeb7          	lui	t4,0xfffff
    41fc:	dcce8e93          	addi	t4,t4,-564 # ffffedcc <_edata+0xfffddef2>
    4200:	01d609b3          	add	s3,a2,t4
    4204:	01312823          	sw	s3,16(sp)
    4208:	0001c197          	auipc	gp,0x1c
    420c:	0f818193          	addi	gp,gp,248 # 20300 <begin_regstate>
    4210:	0011a223          	sw	ra,4(gp)
    4214:	0051aa23          	sw	t0,20(gp)
    4218:	0061ac23          	sw	t1,24(gp)
    421c:	0281a023          	sw	s0,32(gp)
    4220:	02a1a423          	sw	a0,40(gp)
    4224:	00098413          	mv	s0,s3
    4228:	fffff2b7          	lui	t0,0xfffff
    422c:	5cb28293          	addi	t0,t0,1483 # fffff5cb <_edata+0xfffde6f1>
    4230:	2c540663          	beq	s0,t0,44fc <FN_WriteA0_common+0x42c8>
    4234:	0001cf97          	auipc	t6,0x1c
    4238:	0ccf8f93          	addi	t6,t6,204 # 20300 <begin_regstate>
    423c:	001fa223          	sw	ra,4(t6)
    4240:	005faa23          	sw	t0,20(t6)
    4244:	006fac23          	sw	t1,24(t6)
    4248:	028fa023          	sw	s0,32(t6)
    424c:	02afa423          	sw	a0,40(t6)
    4250:	0001d517          	auipc	a0,0x1d
    4254:	83550513          	addi	a0,a0,-1995 # 20a85 <end_regstate+0x685>
    4258:	f65fb0ef          	jal	1bc <FN_WriteStr>
    425c:	0001cf97          	auipc	t6,0x1c
    4260:	0a4f8f93          	addi	t6,t6,164 # 20300 <begin_regstate>
    4264:	004fa083          	lw	ra,4(t6)
    4268:	014fa283          	lw	t0,20(t6)
    426c:	018fa303          	lw	t1,24(t6)
    4270:	020fa403          	lw	s0,32(t6)
    4274:	028fa503          	lw	a0,40(t6)
    4278:	0001cf97          	auipc	t6,0x1c
    427c:	088f8f93          	addi	t6,t6,136 # 20300 <begin_regstate>
    4280:	001fa223          	sw	ra,4(t6)
    4284:	005faa23          	sw	t0,20(t6)
    4288:	006fac23          	sw	t1,24(t6)
    428c:	028fa023          	sw	s0,32(t6)
    4290:	02afa423          	sw	a0,40(t6)
    4294:	0001d517          	auipc	a0,0x1d
    4298:	80c50513          	addi	a0,a0,-2036 # 20aa0 <end_regstate+0x6a0>
    429c:	f21fb0ef          	jal	1bc <FN_WriteStr>
    42a0:	0001cf97          	auipc	t6,0x1c
    42a4:	060f8f93          	addi	t6,t6,96 # 20300 <begin_regstate>
    42a8:	004fa083          	lw	ra,4(t6)
    42ac:	014fa283          	lw	t0,20(t6)
    42b0:	018fa303          	lw	t1,24(t6)
    42b4:	020fa403          	lw	s0,32(t6)
    42b8:	028fa503          	lw	a0,40(t6)
    42bc:	0001cf97          	auipc	t6,0x1c
    42c0:	044f8f93          	addi	t6,t6,68 # 20300 <begin_regstate>
    42c4:	001fa223          	sw	ra,4(t6)
    42c8:	005faa23          	sw	t0,20(t6)
    42cc:	006fac23          	sw	t1,24(t6)
    42d0:	028fa023          	sw	s0,32(t6)
    42d4:	02afa423          	sw	a0,40(t6)
    42d8:	0001c517          	auipc	a0,0x1c
    42dc:	7d750513          	addi	a0,a0,2007 # 20aaf <end_regstate+0x6af>
    42e0:	eddfb0ef          	jal	1bc <FN_WriteStr>
    42e4:	0001cf97          	auipc	t6,0x1c
    42e8:	01cf8f93          	addi	t6,t6,28 # 20300 <begin_regstate>
    42ec:	004fa083          	lw	ra,4(t6)
    42f0:	014fa283          	lw	t0,20(t6)
    42f4:	018fa303          	lw	t1,24(t6)
    42f8:	020fa403          	lw	s0,32(t6)
    42fc:	028fa503          	lw	a0,40(t6)
    4300:	0001cf97          	auipc	t6,0x1c
    4304:	000f8f93          	mv	t6,t6
    4308:	001fa223          	sw	ra,4(t6) # 20304 <begin_regstate+0x4>
    430c:	005faa23          	sw	t0,20(t6)
    4310:	006fac23          	sw	t1,24(t6)
    4314:	028fa023          	sw	s0,32(t6)
    4318:	02afa423          	sw	a0,40(t6)
    431c:	0001c517          	auipc	a0,0x1c
    4320:	79b50513          	addi	a0,a0,1947 # 20ab7 <end_regstate+0x6b7>
    4324:	e99fb0ef          	jal	1bc <FN_WriteStr>
    4328:	0001cf97          	auipc	t6,0x1c
    432c:	fd8f8f93          	addi	t6,t6,-40 # 20300 <begin_regstate>
    4330:	004fa083          	lw	ra,4(t6)
    4334:	014fa283          	lw	t0,20(t6)
    4338:	018fa303          	lw	t1,24(t6)
    433c:	020fa403          	lw	s0,32(t6)
    4340:	028fa503          	lw	a0,40(t6)
    4344:	0001cf97          	auipc	t6,0x1c
    4348:	fbcf8f93          	addi	t6,t6,-68 # 20300 <begin_regstate>
    434c:	001fa223          	sw	ra,4(t6)
    4350:	005faa23          	sw	t0,20(t6)
    4354:	006fac23          	sw	t1,24(t6)
    4358:	028fa023          	sw	s0,32(t6)
    435c:	02afa423          	sw	a0,40(t6)
    4360:	0001c517          	auipc	a0,0x1c
    4364:	75a50513          	addi	a0,a0,1882 # 20aba <end_regstate+0x6ba>
    4368:	e55fb0ef          	jal	1bc <FN_WriteStr>
    436c:	0001cf97          	auipc	t6,0x1c
    4370:	f94f8f93          	addi	t6,t6,-108 # 20300 <begin_regstate>
    4374:	004fa083          	lw	ra,4(t6)
    4378:	014fa283          	lw	t0,20(t6)
    437c:	018fa303          	lw	t1,24(t6)
    4380:	020fa403          	lw	s0,32(t6)
    4384:	028fa503          	lw	a0,40(t6)
    4388:	0001cf97          	auipc	t6,0x1c
    438c:	f78f8f93          	addi	t6,t6,-136 # 20300 <begin_regstate>
    4390:	001fa223          	sw	ra,4(t6)
    4394:	005faa23          	sw	t0,20(t6)
    4398:	006fac23          	sw	t1,24(t6)
    439c:	028fa023          	sw	s0,32(t6)
    43a0:	02afa423          	sw	a0,40(t6)
    43a4:	0001c517          	auipc	a0,0x1c
    43a8:	71950513          	addi	a0,a0,1817 # 20abd <end_regstate+0x6bd>
    43ac:	e11fb0ef          	jal	1bc <FN_WriteStr>
    43b0:	0001cf97          	auipc	t6,0x1c
    43b4:	f50f8f93          	addi	t6,t6,-176 # 20300 <begin_regstate>
    43b8:	004fa083          	lw	ra,4(t6)
    43bc:	014fa283          	lw	t0,20(t6)
    43c0:	018fa303          	lw	t1,24(t6)
    43c4:	020fa403          	lw	s0,32(t6)
    43c8:	028fa503          	lw	a0,40(t6)
    43cc:	0001cf97          	auipc	t6,0x1c
    43d0:	f34f8f93          	addi	t6,t6,-204 # 20300 <begin_regstate>
    43d4:	001fa223          	sw	ra,4(t6)
    43d8:	005faa23          	sw	t0,20(t6)
    43dc:	006fac23          	sw	t1,24(t6)
    43e0:	028fa023          	sw	s0,32(t6)
    43e4:	02afa423          	sw	a0,40(t6)
    43e8:	0001c517          	auipc	a0,0x1c
    43ec:	6d950513          	addi	a0,a0,1753 # 20ac1 <end_regstate+0x6c1>
    43f0:	dcdfb0ef          	jal	1bc <FN_WriteStr>
    43f4:	0001cf97          	auipc	t6,0x1c
    43f8:	f0cf8f93          	addi	t6,t6,-244 # 20300 <begin_regstate>
    43fc:	004fa083          	lw	ra,4(t6)
    4400:	014fa283          	lw	t0,20(t6)
    4404:	018fa303          	lw	t1,24(t6)
    4408:	020fa403          	lw	s0,32(t6)
    440c:	028fa503          	lw	a0,40(t6)
    4410:	00040513          	mv	a0,s0
    4414:	dc9fb0ef          	jal	1dc <FN_WriteA0>
    4418:	0001cf97          	auipc	t6,0x1c
    441c:	ee8f8f93          	addi	t6,t6,-280 # 20300 <begin_regstate>
    4420:	001fa223          	sw	ra,4(t6)
    4424:	005faa23          	sw	t0,20(t6)
    4428:	006fac23          	sw	t1,24(t6)
    442c:	028fa023          	sw	s0,32(t6)
    4430:	02afa423          	sw	a0,40(t6)
    4434:	0001c517          	auipc	a0,0x1c
    4438:	68f50513          	addi	a0,a0,1679 # 20ac3 <end_regstate+0x6c3>
    443c:	d81fb0ef          	jal	1bc <FN_WriteStr>
    4440:	0001cf97          	auipc	t6,0x1c
    4444:	ec0f8f93          	addi	t6,t6,-320 # 20300 <begin_regstate>
    4448:	004fa083          	lw	ra,4(t6)
    444c:	014fa283          	lw	t0,20(t6)
    4450:	018fa303          	lw	t1,24(t6)
    4454:	020fa403          	lw	s0,32(t6)
    4458:	028fa503          	lw	a0,40(t6)
    445c:	0001cf97          	auipc	t6,0x1c
    4460:	ea4f8f93          	addi	t6,t6,-348 # 20300 <begin_regstate>
    4464:	001fa223          	sw	ra,4(t6)
    4468:	005faa23          	sw	t0,20(t6)
    446c:	006fac23          	sw	t1,24(t6)
    4470:	028fa023          	sw	s0,32(t6)
    4474:	02afa423          	sw	a0,40(t6)
    4478:	0001c517          	auipc	a0,0x1c
    447c:	65150513          	addi	a0,a0,1617 # 20ac9 <end_regstate+0x6c9>
    4480:	d3dfb0ef          	jal	1bc <FN_WriteStr>
    4484:	0001cf97          	auipc	t6,0x1c
    4488:	e7cf8f93          	addi	t6,t6,-388 # 20300 <begin_regstate>
    448c:	004fa083          	lw	ra,4(t6)
    4490:	014fa283          	lw	t0,20(t6)
    4494:	018fa303          	lw	t1,24(t6)
    4498:	020fa403          	lw	s0,32(t6)
    449c:	028fa503          	lw	a0,40(t6)
    44a0:	0001cf97          	auipc	t6,0x1c
    44a4:	e60f8f93          	addi	t6,t6,-416 # 20300 <begin_regstate>
    44a8:	001fa223          	sw	ra,4(t6)
    44ac:	005faa23          	sw	t0,20(t6)
    44b0:	006fac23          	sw	t1,24(t6)
    44b4:	028fa023          	sw	s0,32(t6)
    44b8:	02afa423          	sw	a0,40(t6)
    44bc:	0001c517          	auipc	a0,0x1c
    44c0:	61850513          	addi	a0,a0,1560 # 20ad4 <end_regstate+0x6d4>
    44c4:	cf9fb0ef          	jal	1bc <FN_WriteStr>
    44c8:	0001cf97          	auipc	t6,0x1c
    44cc:	e38f8f93          	addi	t6,t6,-456 # 20300 <begin_regstate>
    44d0:	004fa083          	lw	ra,4(t6)
    44d4:	014fa283          	lw	t0,20(t6)
    44d8:	018fa303          	lw	t1,24(t6)
    44dc:	020fa403          	lw	s0,32(t6)
    44e0:	028fa503          	lw	a0,40(t6)
    44e4:	06400193          	li	gp,100
    44e8:	0ff0000f          	fence
    44ec:	00018063          	beqz	gp,44ec <FN_WriteA0_common+0x42b8>
    44f0:	00119193          	slli	gp,gp,0x1
    44f4:	0011e193          	ori	gp,gp,1
    44f8:	00000073          	ecall
    44fc:	0001c197          	auipc	gp,0x1c
    4500:	e0418193          	addi	gp,gp,-508 # 20300 <begin_regstate>
    4504:	0041a083          	lw	ra,4(gp)
    4508:	0141a283          	lw	t0,20(gp)
    450c:	0181a303          	lw	t1,24(gp)
    4510:	0201a403          	lw	s0,32(gp)
    4514:	0281a503          	lw	a0,40(gp)
    4518:	0001cf97          	auipc	t6,0x1c
    451c:	de8f8f93          	addi	t6,t6,-536 # 20300 <begin_regstate>
    4520:	001fa223          	sw	ra,4(t6)
    4524:	005faa23          	sw	t0,20(t6)
    4528:	006fac23          	sw	t1,24(t6)
    452c:	028fa023          	sw	s0,32(t6)
    4530:	02afa423          	sw	a0,40(t6)
    4534:	0001c517          	auipc	a0,0x1c
    4538:	5a250513          	addi	a0,a0,1442 # 20ad6 <end_regstate+0x6d6>
    453c:	c81fb0ef          	jal	1bc <FN_WriteStr>
    4540:	0001cf97          	auipc	t6,0x1c
    4544:	dc0f8f93          	addi	t6,t6,-576 # 20300 <begin_regstate>
    4548:	004fa083          	lw	ra,4(t6)
    454c:	014fa283          	lw	t0,20(t6)
    4550:	018fa303          	lw	t1,24(t6)
    4554:	020fa403          	lw	s0,32(t6)
    4558:	028fa503          	lw	a0,40(t6)
    455c:	0001c097          	auipc	ra,0x1c
    4560:	cf408093          	addi	ra,ra,-780 # 20250 <test_5_res>
    4564:	00000593          	li	a1,0
    4568:	80000e37          	lui	t3,0x80000
    456c:	01c58a33          	add	s4,a1,t3
    4570:	0140a023          	sw	s4,0(ra)
    4574:	0001c117          	auipc	sp,0x1c
    4578:	d8c10113          	addi	sp,sp,-628 # 20300 <begin_regstate>
    457c:	00112223          	sw	ra,4(sp)
    4580:	00512a23          	sw	t0,20(sp)
    4584:	00612c23          	sw	t1,24(sp)
    4588:	02812023          	sw	s0,32(sp)
    458c:	02a12423          	sw	a0,40(sp)
    4590:	000a0413          	mv	s0,s4
    4594:	800002b7          	lui	t0,0x80000
    4598:	2c540663          	beq	s0,t0,4864 <FN_WriteA0_common+0x4630>
    459c:	0001cf97          	auipc	t6,0x1c
    45a0:	d64f8f93          	addi	t6,t6,-668 # 20300 <begin_regstate>
    45a4:	001fa223          	sw	ra,4(t6)
    45a8:	005faa23          	sw	t0,20(t6)
    45ac:	006fac23          	sw	t1,24(t6)
    45b0:	028fa023          	sw	s0,32(t6)
    45b4:	02afa423          	sw	a0,40(t6)
    45b8:	0001c517          	auipc	a0,0x1c
    45bc:	52f50513          	addi	a0,a0,1327 # 20ae7 <end_regstate+0x6e7>
    45c0:	bfdfb0ef          	jal	1bc <FN_WriteStr>
    45c4:	0001cf97          	auipc	t6,0x1c
    45c8:	d3cf8f93          	addi	t6,t6,-708 # 20300 <begin_regstate>
    45cc:	004fa083          	lw	ra,4(t6)
    45d0:	014fa283          	lw	t0,20(t6)
    45d4:	018fa303          	lw	t1,24(t6)
    45d8:	020fa403          	lw	s0,32(t6)
    45dc:	028fa503          	lw	a0,40(t6)
    45e0:	0001cf97          	auipc	t6,0x1c
    45e4:	d20f8f93          	addi	t6,t6,-736 # 20300 <begin_regstate>
    45e8:	001fa223          	sw	ra,4(t6)
    45ec:	005faa23          	sw	t0,20(t6)
    45f0:	006fac23          	sw	t1,24(t6)
    45f4:	028fa023          	sw	s0,32(t6)
    45f8:	02afa423          	sw	a0,40(t6)
    45fc:	0001c517          	auipc	a0,0x1c
    4600:	50650513          	addi	a0,a0,1286 # 20b02 <end_regstate+0x702>
    4604:	bb9fb0ef          	jal	1bc <FN_WriteStr>
    4608:	0001cf97          	auipc	t6,0x1c
    460c:	cf8f8f93          	addi	t6,t6,-776 # 20300 <begin_regstate>
    4610:	004fa083          	lw	ra,4(t6)
    4614:	014fa283          	lw	t0,20(t6)
    4618:	018fa303          	lw	t1,24(t6)
    461c:	020fa403          	lw	s0,32(t6)
    4620:	028fa503          	lw	a0,40(t6)
    4624:	0001cf97          	auipc	t6,0x1c
    4628:	cdcf8f93          	addi	t6,t6,-804 # 20300 <begin_regstate>
    462c:	001fa223          	sw	ra,4(t6)
    4630:	005faa23          	sw	t0,20(t6)
    4634:	006fac23          	sw	t1,24(t6)
    4638:	028fa023          	sw	s0,32(t6)
    463c:	02afa423          	sw	a0,40(t6)
    4640:	0001c517          	auipc	a0,0x1c
    4644:	4d150513          	addi	a0,a0,1233 # 20b11 <end_regstate+0x711>
    4648:	b75fb0ef          	jal	1bc <FN_WriteStr>
    464c:	0001cf97          	auipc	t6,0x1c
    4650:	cb4f8f93          	addi	t6,t6,-844 # 20300 <begin_regstate>
    4654:	004fa083          	lw	ra,4(t6)
    4658:	014fa283          	lw	t0,20(t6)
    465c:	018fa303          	lw	t1,24(t6)
    4660:	020fa403          	lw	s0,32(t6)
    4664:	028fa503          	lw	a0,40(t6)
    4668:	0001cf97          	auipc	t6,0x1c
    466c:	c98f8f93          	addi	t6,t6,-872 # 20300 <begin_regstate>
    4670:	001fa223          	sw	ra,4(t6)
    4674:	005faa23          	sw	t0,20(t6)
    4678:	006fac23          	sw	t1,24(t6)
    467c:	028fa023          	sw	s0,32(t6)
    4680:	02afa423          	sw	a0,40(t6)
    4684:	0001c517          	auipc	a0,0x1c
    4688:	49550513          	addi	a0,a0,1173 # 20b19 <end_regstate+0x719>
    468c:	b31fb0ef          	jal	1bc <FN_WriteStr>
    4690:	0001cf97          	auipc	t6,0x1c
    4694:	c70f8f93          	addi	t6,t6,-912 # 20300 <begin_regstate>
    4698:	004fa083          	lw	ra,4(t6)
    469c:	014fa283          	lw	t0,20(t6)
    46a0:	018fa303          	lw	t1,24(t6)
    46a4:	020fa403          	lw	s0,32(t6)
    46a8:	028fa503          	lw	a0,40(t6)
    46ac:	0001cf97          	auipc	t6,0x1c
    46b0:	c54f8f93          	addi	t6,t6,-940 # 20300 <begin_regstate>
    46b4:	001fa223          	sw	ra,4(t6)
    46b8:	005faa23          	sw	t0,20(t6)
    46bc:	006fac23          	sw	t1,24(t6)
    46c0:	028fa023          	sw	s0,32(t6)
    46c4:	02afa423          	sw	a0,40(t6)
    46c8:	0001c517          	auipc	a0,0x1c
    46cc:	45550513          	addi	a0,a0,1109 # 20b1d <end_regstate+0x71d>
    46d0:	aedfb0ef          	jal	1bc <FN_WriteStr>
    46d4:	0001cf97          	auipc	t6,0x1c
    46d8:	c2cf8f93          	addi	t6,t6,-980 # 20300 <begin_regstate>
    46dc:	004fa083          	lw	ra,4(t6)
    46e0:	014fa283          	lw	t0,20(t6)
    46e4:	018fa303          	lw	t1,24(t6)
    46e8:	020fa403          	lw	s0,32(t6)
    46ec:	028fa503          	lw	a0,40(t6)
    46f0:	0001cf97          	auipc	t6,0x1c
    46f4:	c10f8f93          	addi	t6,t6,-1008 # 20300 <begin_regstate>
    46f8:	001fa223          	sw	ra,4(t6)
    46fc:	005faa23          	sw	t0,20(t6)
    4700:	006fac23          	sw	t1,24(t6)
    4704:	028fa023          	sw	s0,32(t6)
    4708:	02afa423          	sw	a0,40(t6)
    470c:	0001c517          	auipc	a0,0x1c
    4710:	41450513          	addi	a0,a0,1044 # 20b20 <end_regstate+0x720>
    4714:	aa9fb0ef          	jal	1bc <FN_WriteStr>
    4718:	0001cf97          	auipc	t6,0x1c
    471c:	be8f8f93          	addi	t6,t6,-1048 # 20300 <begin_regstate>
    4720:	004fa083          	lw	ra,4(t6)
    4724:	014fa283          	lw	t0,20(t6)
    4728:	018fa303          	lw	t1,24(t6)
    472c:	020fa403          	lw	s0,32(t6)
    4730:	028fa503          	lw	a0,40(t6)
    4734:	0001cf97          	auipc	t6,0x1c
    4738:	bccf8f93          	addi	t6,t6,-1076 # 20300 <begin_regstate>
    473c:	001fa223          	sw	ra,4(t6)
    4740:	005faa23          	sw	t0,20(t6)
    4744:	006fac23          	sw	t1,24(t6)
    4748:	028fa023          	sw	s0,32(t6)
    474c:	02afa423          	sw	a0,40(t6)
    4750:	0001c517          	auipc	a0,0x1c
    4754:	3d450513          	addi	a0,a0,980 # 20b24 <end_regstate+0x724>
    4758:	a65fb0ef          	jal	1bc <FN_WriteStr>
    475c:	0001cf97          	auipc	t6,0x1c
    4760:	ba4f8f93          	addi	t6,t6,-1116 # 20300 <begin_regstate>
    4764:	004fa083          	lw	ra,4(t6)
    4768:	014fa283          	lw	t0,20(t6)
    476c:	018fa303          	lw	t1,24(t6)
    4770:	020fa403          	lw	s0,32(t6)
    4774:	028fa503          	lw	a0,40(t6)
    4778:	00040513          	mv	a0,s0
    477c:	a61fb0ef          	jal	1dc <FN_WriteA0>
    4780:	0001cf97          	auipc	t6,0x1c
    4784:	b80f8f93          	addi	t6,t6,-1152 # 20300 <begin_regstate>
    4788:	001fa223          	sw	ra,4(t6)
    478c:	005faa23          	sw	t0,20(t6)
    4790:	006fac23          	sw	t1,24(t6)
    4794:	028fa023          	sw	s0,32(t6)
    4798:	02afa423          	sw	a0,40(t6)
    479c:	0001c517          	auipc	a0,0x1c
    47a0:	38a50513          	addi	a0,a0,906 # 20b26 <end_regstate+0x726>
    47a4:	a19fb0ef          	jal	1bc <FN_WriteStr>
    47a8:	0001cf97          	auipc	t6,0x1c
    47ac:	b58f8f93          	addi	t6,t6,-1192 # 20300 <begin_regstate>
    47b0:	004fa083          	lw	ra,4(t6)
    47b4:	014fa283          	lw	t0,20(t6)
    47b8:	018fa303          	lw	t1,24(t6)
    47bc:	020fa403          	lw	s0,32(t6)
    47c0:	028fa503          	lw	a0,40(t6)
    47c4:	0001cf97          	auipc	t6,0x1c
    47c8:	b3cf8f93          	addi	t6,t6,-1220 # 20300 <begin_regstate>
    47cc:	001fa223          	sw	ra,4(t6)
    47d0:	005faa23          	sw	t0,20(t6)
    47d4:	006fac23          	sw	t1,24(t6)
    47d8:	028fa023          	sw	s0,32(t6)
    47dc:	02afa423          	sw	a0,40(t6)
    47e0:	0001c517          	auipc	a0,0x1c
    47e4:	34c50513          	addi	a0,a0,844 # 20b2c <end_regstate+0x72c>
    47e8:	9d5fb0ef          	jal	1bc <FN_WriteStr>
    47ec:	0001cf97          	auipc	t6,0x1c
    47f0:	b14f8f93          	addi	t6,t6,-1260 # 20300 <begin_regstate>
    47f4:	004fa083          	lw	ra,4(t6)
    47f8:	014fa283          	lw	t0,20(t6)
    47fc:	018fa303          	lw	t1,24(t6)
    4800:	020fa403          	lw	s0,32(t6)
    4804:	028fa503          	lw	a0,40(t6)
    4808:	0001cf97          	auipc	t6,0x1c
    480c:	af8f8f93          	addi	t6,t6,-1288 # 20300 <begin_regstate>
    4810:	001fa223          	sw	ra,4(t6)
    4814:	005faa23          	sw	t0,20(t6)
    4818:	006fac23          	sw	t1,24(t6)
    481c:	028fa023          	sw	s0,32(t6)
    4820:	02afa423          	sw	a0,40(t6)
    4824:	0001c517          	auipc	a0,0x1c
    4828:	31350513          	addi	a0,a0,787 # 20b37 <end_regstate+0x737>
    482c:	991fb0ef          	jal	1bc <FN_WriteStr>
    4830:	0001cf97          	auipc	t6,0x1c
    4834:	ad0f8f93          	addi	t6,t6,-1328 # 20300 <begin_regstate>
    4838:	004fa083          	lw	ra,4(t6)
    483c:	014fa283          	lw	t0,20(t6)
    4840:	018fa303          	lw	t1,24(t6)
    4844:	020fa403          	lw	s0,32(t6)
    4848:	028fa503          	lw	a0,40(t6)
    484c:	06400193          	li	gp,100
    4850:	0ff0000f          	fence
    4854:	00018063          	beqz	gp,4854 <FN_WriteA0_common+0x4620>
    4858:	00119193          	slli	gp,gp,0x1
    485c:	0011e193          	ori	gp,gp,1
    4860:	00000073          	ecall
    4864:	0001c117          	auipc	sp,0x1c
    4868:	a9c10113          	addi	sp,sp,-1380 # 20300 <begin_regstate>
    486c:	00412083          	lw	ra,4(sp)
    4870:	01412283          	lw	t0,20(sp)
    4874:	01812303          	lw	t1,24(sp)
    4878:	02012403          	lw	s0,32(sp)
    487c:	02812503          	lw	a0,40(sp)
    4880:	00001537          	lui	a0,0x1
    4884:	80050513          	addi	a0,a0,-2048 # 800 <FN_WriteA0_common+0x5cc>
    4888:	00001db7          	lui	s11,0x1
    488c:	234d8d93          	addi	s11,s11,564 # 1234 <FN_WriteA0_common+0x1000>
    4890:	01b50ab3          	add	s5,a0,s11
    4894:	0150a223          	sw	s5,4(ra)
    4898:	0001c117          	auipc	sp,0x1c
    489c:	a6810113          	addi	sp,sp,-1432 # 20300 <begin_regstate>
    48a0:	00112223          	sw	ra,4(sp)
    48a4:	00512a23          	sw	t0,20(sp)
    48a8:	00612c23          	sw	t1,24(sp)
    48ac:	02812023          	sw	s0,32(sp)
    48b0:	02a12423          	sw	a0,40(sp)
    48b4:	000a8413          	mv	s0,s5
    48b8:	000022b7          	lui	t0,0x2
    48bc:	a3428293          	addi	t0,t0,-1484 # 1a34 <FN_WriteA0_common+0x1800>
    48c0:	2c540663          	beq	s0,t0,4b8c <FN_WriteA0_common+0x4958>
    48c4:	0001cf97          	auipc	t6,0x1c
    48c8:	a3cf8f93          	addi	t6,t6,-1476 # 20300 <begin_regstate>
    48cc:	001fa223          	sw	ra,4(t6)
    48d0:	005faa23          	sw	t0,20(t6)
    48d4:	006fac23          	sw	t1,24(t6)
    48d8:	028fa023          	sw	s0,32(t6)
    48dc:	02afa423          	sw	a0,40(t6)
    48e0:	0001c517          	auipc	a0,0x1c
    48e4:	25950513          	addi	a0,a0,601 # 20b39 <end_regstate+0x739>
    48e8:	8d5fb0ef          	jal	1bc <FN_WriteStr>
    48ec:	0001cf97          	auipc	t6,0x1c
    48f0:	a14f8f93          	addi	t6,t6,-1516 # 20300 <begin_regstate>
    48f4:	004fa083          	lw	ra,4(t6)
    48f8:	014fa283          	lw	t0,20(t6)
    48fc:	018fa303          	lw	t1,24(t6)
    4900:	020fa403          	lw	s0,32(t6)
    4904:	028fa503          	lw	a0,40(t6)
    4908:	0001cf97          	auipc	t6,0x1c
    490c:	9f8f8f93          	addi	t6,t6,-1544 # 20300 <begin_regstate>
    4910:	001fa223          	sw	ra,4(t6)
    4914:	005faa23          	sw	t0,20(t6)
    4918:	006fac23          	sw	t1,24(t6)
    491c:	028fa023          	sw	s0,32(t6)
    4920:	02afa423          	sw	a0,40(t6)
    4924:	0001c517          	auipc	a0,0x1c
    4928:	23050513          	addi	a0,a0,560 # 20b54 <end_regstate+0x754>
    492c:	891fb0ef          	jal	1bc <FN_WriteStr>
    4930:	0001cf97          	auipc	t6,0x1c
    4934:	9d0f8f93          	addi	t6,t6,-1584 # 20300 <begin_regstate>
    4938:	004fa083          	lw	ra,4(t6)
    493c:	014fa283          	lw	t0,20(t6)
    4940:	018fa303          	lw	t1,24(t6)
    4944:	020fa403          	lw	s0,32(t6)
    4948:	028fa503          	lw	a0,40(t6)
    494c:	0001cf97          	auipc	t6,0x1c
    4950:	9b4f8f93          	addi	t6,t6,-1612 # 20300 <begin_regstate>
    4954:	001fa223          	sw	ra,4(t6)
    4958:	005faa23          	sw	t0,20(t6)
    495c:	006fac23          	sw	t1,24(t6)
    4960:	028fa023          	sw	s0,32(t6)
    4964:	02afa423          	sw	a0,40(t6)
    4968:	0001c517          	auipc	a0,0x1c
    496c:	1fb50513          	addi	a0,a0,507 # 20b63 <end_regstate+0x763>
    4970:	84dfb0ef          	jal	1bc <FN_WriteStr>
    4974:	0001cf97          	auipc	t6,0x1c
    4978:	98cf8f93          	addi	t6,t6,-1652 # 20300 <begin_regstate>
    497c:	004fa083          	lw	ra,4(t6)
    4980:	014fa283          	lw	t0,20(t6)
    4984:	018fa303          	lw	t1,24(t6)
    4988:	020fa403          	lw	s0,32(t6)
    498c:	028fa503          	lw	a0,40(t6)
    4990:	0001cf97          	auipc	t6,0x1c
    4994:	970f8f93          	addi	t6,t6,-1680 # 20300 <begin_regstate>
    4998:	001fa223          	sw	ra,4(t6)
    499c:	005faa23          	sw	t0,20(t6)
    49a0:	006fac23          	sw	t1,24(t6)
    49a4:	028fa023          	sw	s0,32(t6)
    49a8:	02afa423          	sw	a0,40(t6)
    49ac:	0001c517          	auipc	a0,0x1c
    49b0:	1bf50513          	addi	a0,a0,447 # 20b6b <end_regstate+0x76b>
    49b4:	809fb0ef          	jal	1bc <FN_WriteStr>
    49b8:	0001cf97          	auipc	t6,0x1c
    49bc:	948f8f93          	addi	t6,t6,-1720 # 20300 <begin_regstate>
    49c0:	004fa083          	lw	ra,4(t6)
    49c4:	014fa283          	lw	t0,20(t6)
    49c8:	018fa303          	lw	t1,24(t6)
    49cc:	020fa403          	lw	s0,32(t6)
    49d0:	028fa503          	lw	a0,40(t6)
    49d4:	0001cf97          	auipc	t6,0x1c
    49d8:	92cf8f93          	addi	t6,t6,-1748 # 20300 <begin_regstate>
    49dc:	001fa223          	sw	ra,4(t6)
    49e0:	005faa23          	sw	t0,20(t6)
    49e4:	006fac23          	sw	t1,24(t6)
    49e8:	028fa023          	sw	s0,32(t6)
    49ec:	02afa423          	sw	a0,40(t6)
    49f0:	0001c517          	auipc	a0,0x1c
    49f4:	17f50513          	addi	a0,a0,383 # 20b6f <end_regstate+0x76f>
    49f8:	fc4fb0ef          	jal	1bc <FN_WriteStr>
    49fc:	0001cf97          	auipc	t6,0x1c
    4a00:	904f8f93          	addi	t6,t6,-1788 # 20300 <begin_regstate>
    4a04:	004fa083          	lw	ra,4(t6)
    4a08:	014fa283          	lw	t0,20(t6)
    4a0c:	018fa303          	lw	t1,24(t6)
    4a10:	020fa403          	lw	s0,32(t6)
    4a14:	028fa503          	lw	a0,40(t6)
    4a18:	0001cf97          	auipc	t6,0x1c
    4a1c:	8e8f8f93          	addi	t6,t6,-1816 # 20300 <begin_regstate>
    4a20:	001fa223          	sw	ra,4(t6)
    4a24:	005faa23          	sw	t0,20(t6)
    4a28:	006fac23          	sw	t1,24(t6)
    4a2c:	028fa023          	sw	s0,32(t6)
    4a30:	02afa423          	sw	a0,40(t6)
    4a34:	0001c517          	auipc	a0,0x1c
    4a38:	13e50513          	addi	a0,a0,318 # 20b72 <end_regstate+0x772>
    4a3c:	f80fb0ef          	jal	1bc <FN_WriteStr>
    4a40:	0001cf97          	auipc	t6,0x1c
    4a44:	8c0f8f93          	addi	t6,t6,-1856 # 20300 <begin_regstate>
    4a48:	004fa083          	lw	ra,4(t6)
    4a4c:	014fa283          	lw	t0,20(t6)
    4a50:	018fa303          	lw	t1,24(t6)
    4a54:	020fa403          	lw	s0,32(t6)
    4a58:	028fa503          	lw	a0,40(t6)
    4a5c:	0001cf97          	auipc	t6,0x1c
    4a60:	8a4f8f93          	addi	t6,t6,-1884 # 20300 <begin_regstate>
    4a64:	001fa223          	sw	ra,4(t6)
    4a68:	005faa23          	sw	t0,20(t6)
    4a6c:	006fac23          	sw	t1,24(t6)
    4a70:	028fa023          	sw	s0,32(t6)
    4a74:	02afa423          	sw	a0,40(t6)
    4a78:	0001c517          	auipc	a0,0x1c
    4a7c:	0fe50513          	addi	a0,a0,254 # 20b76 <end_regstate+0x776>
    4a80:	f3cfb0ef          	jal	1bc <FN_WriteStr>
    4a84:	0001cf97          	auipc	t6,0x1c
    4a88:	87cf8f93          	addi	t6,t6,-1924 # 20300 <begin_regstate>
    4a8c:	004fa083          	lw	ra,4(t6)
    4a90:	014fa283          	lw	t0,20(t6)
    4a94:	018fa303          	lw	t1,24(t6)
    4a98:	020fa403          	lw	s0,32(t6)
    4a9c:	028fa503          	lw	a0,40(t6)
    4aa0:	00040513          	mv	a0,s0
    4aa4:	f38fb0ef          	jal	1dc <FN_WriteA0>
    4aa8:	0001cf97          	auipc	t6,0x1c
    4aac:	858f8f93          	addi	t6,t6,-1960 # 20300 <begin_regstate>
    4ab0:	001fa223          	sw	ra,4(t6)
    4ab4:	005faa23          	sw	t0,20(t6)
    4ab8:	006fac23          	sw	t1,24(t6)
    4abc:	028fa023          	sw	s0,32(t6)
    4ac0:	02afa423          	sw	a0,40(t6)
    4ac4:	0001c517          	auipc	a0,0x1c
    4ac8:	0b450513          	addi	a0,a0,180 # 20b78 <end_regstate+0x778>
    4acc:	ef0fb0ef          	jal	1bc <FN_WriteStr>
    4ad0:	0001cf97          	auipc	t6,0x1c
    4ad4:	830f8f93          	addi	t6,t6,-2000 # 20300 <begin_regstate>
    4ad8:	004fa083          	lw	ra,4(t6)
    4adc:	014fa283          	lw	t0,20(t6)
    4ae0:	018fa303          	lw	t1,24(t6)
    4ae4:	020fa403          	lw	s0,32(t6)
    4ae8:	028fa503          	lw	a0,40(t6)
    4aec:	0001cf97          	auipc	t6,0x1c
    4af0:	814f8f93          	addi	t6,t6,-2028 # 20300 <begin_regstate>
    4af4:	001fa223          	sw	ra,4(t6)
    4af8:	005faa23          	sw	t0,20(t6)
    4afc:	006fac23          	sw	t1,24(t6)
    4b00:	028fa023          	sw	s0,32(t6)
    4b04:	02afa423          	sw	a0,40(t6)
    4b08:	0001c517          	auipc	a0,0x1c
    4b0c:	07650513          	addi	a0,a0,118 # 20b7e <end_regstate+0x77e>
    4b10:	eacfb0ef          	jal	1bc <FN_WriteStr>
    4b14:	0001bf97          	auipc	t6,0x1b
    4b18:	7ecf8f93          	addi	t6,t6,2028 # 20300 <begin_regstate>
    4b1c:	004fa083          	lw	ra,4(t6)
    4b20:	014fa283          	lw	t0,20(t6)
    4b24:	018fa303          	lw	t1,24(t6)
    4b28:	020fa403          	lw	s0,32(t6)
    4b2c:	028fa503          	lw	a0,40(t6)
    4b30:	0001bf97          	auipc	t6,0x1b
    4b34:	7d0f8f93          	addi	t6,t6,2000 # 20300 <begin_regstate>
    4b38:	001fa223          	sw	ra,4(t6)
    4b3c:	005faa23          	sw	t0,20(t6)
    4b40:	006fac23          	sw	t1,24(t6)
    4b44:	028fa023          	sw	s0,32(t6)
    4b48:	02afa423          	sw	a0,40(t6)
    4b4c:	0001c517          	auipc	a0,0x1c
    4b50:	03950513          	addi	a0,a0,57 # 20b85 <end_regstate+0x785>
    4b54:	e68fb0ef          	jal	1bc <FN_WriteStr>
    4b58:	0001bf97          	auipc	t6,0x1b
    4b5c:	7a8f8f93          	addi	t6,t6,1960 # 20300 <begin_regstate>
    4b60:	004fa083          	lw	ra,4(t6)
    4b64:	014fa283          	lw	t0,20(t6)
    4b68:	018fa303          	lw	t1,24(t6)
    4b6c:	020fa403          	lw	s0,32(t6)
    4b70:	028fa503          	lw	a0,40(t6)
    4b74:	06400193          	li	gp,100
    4b78:	0ff0000f          	fence
    4b7c:	00018063          	beqz	gp,4b7c <FN_WriteA0_common+0x4948>
    4b80:	00119193          	slli	gp,gp,0x1
    4b84:	0011e193          	ori	gp,gp,1
    4b88:	00000073          	ecall
    4b8c:	0001b117          	auipc	sp,0x1b
    4b90:	77410113          	addi	sp,sp,1908 # 20300 <begin_regstate>
    4b94:	00412083          	lw	ra,4(sp)
    4b98:	01412283          	lw	t0,20(sp)
    4b9c:	01812303          	lw	t1,24(sp)
    4ba0:	02012403          	lw	s0,32(sp)
    4ba4:	02812503          	lw	a0,40(sp)
    4ba8:	076544b7          	lui	s1,0x7654
    4bac:	32148493          	addi	s1,s1,801 # 7654321 <_edata+0x7633447>
    4bb0:	fff00d13          	li	s10,-1
    4bb4:	01a48b33          	add	s6,s1,s10
    4bb8:	0160a423          	sw	s6,8(ra)
    4bbc:	0001b117          	auipc	sp,0x1b
    4bc0:	74410113          	addi	sp,sp,1860 # 20300 <begin_regstate>
    4bc4:	00112223          	sw	ra,4(sp)
    4bc8:	00512a23          	sw	t0,20(sp)
    4bcc:	00612c23          	sw	t1,24(sp)
    4bd0:	02812023          	sw	s0,32(sp)
    4bd4:	02a12423          	sw	a0,40(sp)
    4bd8:	000b0413          	mv	s0,s6
    4bdc:	076542b7          	lui	t0,0x7654
    4be0:	32028293          	addi	t0,t0,800 # 7654320 <_edata+0x7633446>
    4be4:	2c540663          	beq	s0,t0,4eb0 <FN_WriteA0_common+0x4c7c>
    4be8:	0001bf97          	auipc	t6,0x1b
    4bec:	718f8f93          	addi	t6,t6,1816 # 20300 <begin_regstate>
    4bf0:	001fa223          	sw	ra,4(t6)
    4bf4:	005faa23          	sw	t0,20(t6)
    4bf8:	006fac23          	sw	t1,24(t6)
    4bfc:	028fa023          	sw	s0,32(t6)
    4c00:	02afa423          	sw	a0,40(t6)
    4c04:	0001c517          	auipc	a0,0x1c
    4c08:	f8350513          	addi	a0,a0,-125 # 20b87 <end_regstate+0x787>
    4c0c:	db0fb0ef          	jal	1bc <FN_WriteStr>
    4c10:	0001bf97          	auipc	t6,0x1b
    4c14:	6f0f8f93          	addi	t6,t6,1776 # 20300 <begin_regstate>
    4c18:	004fa083          	lw	ra,4(t6)
    4c1c:	014fa283          	lw	t0,20(t6)
    4c20:	018fa303          	lw	t1,24(t6)
    4c24:	020fa403          	lw	s0,32(t6)
    4c28:	028fa503          	lw	a0,40(t6)
    4c2c:	0001bf97          	auipc	t6,0x1b
    4c30:	6d4f8f93          	addi	t6,t6,1748 # 20300 <begin_regstate>
    4c34:	001fa223          	sw	ra,4(t6)
    4c38:	005faa23          	sw	t0,20(t6)
    4c3c:	006fac23          	sw	t1,24(t6)
    4c40:	028fa023          	sw	s0,32(t6)
    4c44:	02afa423          	sw	a0,40(t6)
    4c48:	0001c517          	auipc	a0,0x1c
    4c4c:	f5a50513          	addi	a0,a0,-166 # 20ba2 <end_regstate+0x7a2>
    4c50:	d6cfb0ef          	jal	1bc <FN_WriteStr>
    4c54:	0001bf97          	auipc	t6,0x1b
    4c58:	6acf8f93          	addi	t6,t6,1708 # 20300 <begin_regstate>
    4c5c:	004fa083          	lw	ra,4(t6)
    4c60:	014fa283          	lw	t0,20(t6)
    4c64:	018fa303          	lw	t1,24(t6)
    4c68:	020fa403          	lw	s0,32(t6)
    4c6c:	028fa503          	lw	a0,40(t6)
    4c70:	0001bf97          	auipc	t6,0x1b
    4c74:	690f8f93          	addi	t6,t6,1680 # 20300 <begin_regstate>
    4c78:	001fa223          	sw	ra,4(t6)
    4c7c:	005faa23          	sw	t0,20(t6)
    4c80:	006fac23          	sw	t1,24(t6)
    4c84:	028fa023          	sw	s0,32(t6)
    4c88:	02afa423          	sw	a0,40(t6)
    4c8c:	0001c517          	auipc	a0,0x1c
    4c90:	f2550513          	addi	a0,a0,-219 # 20bb1 <end_regstate+0x7b1>
    4c94:	d28fb0ef          	jal	1bc <FN_WriteStr>
    4c98:	0001bf97          	auipc	t6,0x1b
    4c9c:	668f8f93          	addi	t6,t6,1640 # 20300 <begin_regstate>
    4ca0:	004fa083          	lw	ra,4(t6)
    4ca4:	014fa283          	lw	t0,20(t6)
    4ca8:	018fa303          	lw	t1,24(t6)
    4cac:	020fa403          	lw	s0,32(t6)
    4cb0:	028fa503          	lw	a0,40(t6)
    4cb4:	0001bf97          	auipc	t6,0x1b
    4cb8:	64cf8f93          	addi	t6,t6,1612 # 20300 <begin_regstate>
    4cbc:	001fa223          	sw	ra,4(t6)
    4cc0:	005faa23          	sw	t0,20(t6)
    4cc4:	006fac23          	sw	t1,24(t6)
    4cc8:	028fa023          	sw	s0,32(t6)
    4ccc:	02afa423          	sw	a0,40(t6)
    4cd0:	0001c517          	auipc	a0,0x1c
    4cd4:	ee950513          	addi	a0,a0,-279 # 20bb9 <end_regstate+0x7b9>
    4cd8:	ce4fb0ef          	jal	1bc <FN_WriteStr>
    4cdc:	0001bf97          	auipc	t6,0x1b
    4ce0:	624f8f93          	addi	t6,t6,1572 # 20300 <begin_regstate>
    4ce4:	004fa083          	lw	ra,4(t6)
    4ce8:	014fa283          	lw	t0,20(t6)
    4cec:	018fa303          	lw	t1,24(t6)
    4cf0:	020fa403          	lw	s0,32(t6)
    4cf4:	028fa503          	lw	a0,40(t6)
    4cf8:	0001bf97          	auipc	t6,0x1b
    4cfc:	608f8f93          	addi	t6,t6,1544 # 20300 <begin_regstate>
    4d00:	001fa223          	sw	ra,4(t6)
    4d04:	005faa23          	sw	t0,20(t6)
    4d08:	006fac23          	sw	t1,24(t6)
    4d0c:	028fa023          	sw	s0,32(t6)
    4d10:	02afa423          	sw	a0,40(t6)
    4d14:	0001c517          	auipc	a0,0x1c
    4d18:	ea950513          	addi	a0,a0,-343 # 20bbd <end_regstate+0x7bd>
    4d1c:	ca0fb0ef          	jal	1bc <FN_WriteStr>
    4d20:	0001bf97          	auipc	t6,0x1b
    4d24:	5e0f8f93          	addi	t6,t6,1504 # 20300 <begin_regstate>
    4d28:	004fa083          	lw	ra,4(t6)
    4d2c:	014fa283          	lw	t0,20(t6)
    4d30:	018fa303          	lw	t1,24(t6)
    4d34:	020fa403          	lw	s0,32(t6)
    4d38:	028fa503          	lw	a0,40(t6)
    4d3c:	0001bf97          	auipc	t6,0x1b
    4d40:	5c4f8f93          	addi	t6,t6,1476 # 20300 <begin_regstate>
    4d44:	001fa223          	sw	ra,4(t6)
    4d48:	005faa23          	sw	t0,20(t6)
    4d4c:	006fac23          	sw	t1,24(t6)
    4d50:	028fa023          	sw	s0,32(t6)
    4d54:	02afa423          	sw	a0,40(t6)
    4d58:	0001c517          	auipc	a0,0x1c
    4d5c:	e6850513          	addi	a0,a0,-408 # 20bc0 <end_regstate+0x7c0>
    4d60:	c5cfb0ef          	jal	1bc <FN_WriteStr>
    4d64:	0001bf97          	auipc	t6,0x1b
    4d68:	59cf8f93          	addi	t6,t6,1436 # 20300 <begin_regstate>
    4d6c:	004fa083          	lw	ra,4(t6)
    4d70:	014fa283          	lw	t0,20(t6)
    4d74:	018fa303          	lw	t1,24(t6)
    4d78:	020fa403          	lw	s0,32(t6)
    4d7c:	028fa503          	lw	a0,40(t6)
    4d80:	0001bf97          	auipc	t6,0x1b
    4d84:	580f8f93          	addi	t6,t6,1408 # 20300 <begin_regstate>
    4d88:	001fa223          	sw	ra,4(t6)
    4d8c:	005faa23          	sw	t0,20(t6)
    4d90:	006fac23          	sw	t1,24(t6)
    4d94:	028fa023          	sw	s0,32(t6)
    4d98:	02afa423          	sw	a0,40(t6)
    4d9c:	0001c517          	auipc	a0,0x1c
    4da0:	e2850513          	addi	a0,a0,-472 # 20bc4 <end_regstate+0x7c4>
    4da4:	c18fb0ef          	jal	1bc <FN_WriteStr>
    4da8:	0001bf97          	auipc	t6,0x1b
    4dac:	558f8f93          	addi	t6,t6,1368 # 20300 <begin_regstate>
    4db0:	004fa083          	lw	ra,4(t6)
    4db4:	014fa283          	lw	t0,20(t6)
    4db8:	018fa303          	lw	t1,24(t6)
    4dbc:	020fa403          	lw	s0,32(t6)
    4dc0:	028fa503          	lw	a0,40(t6)
    4dc4:	00040513          	mv	a0,s0
    4dc8:	c14fb0ef          	jal	1dc <FN_WriteA0>
    4dcc:	0001bf97          	auipc	t6,0x1b
    4dd0:	534f8f93          	addi	t6,t6,1332 # 20300 <begin_regstate>
    4dd4:	001fa223          	sw	ra,4(t6)
    4dd8:	005faa23          	sw	t0,20(t6)
    4ddc:	006fac23          	sw	t1,24(t6)
    4de0:	028fa023          	sw	s0,32(t6)
    4de4:	02afa423          	sw	a0,40(t6)
    4de8:	0001c517          	auipc	a0,0x1c
    4dec:	dde50513          	addi	a0,a0,-546 # 20bc6 <end_regstate+0x7c6>
    4df0:	bccfb0ef          	jal	1bc <FN_WriteStr>
    4df4:	0001bf97          	auipc	t6,0x1b
    4df8:	50cf8f93          	addi	t6,t6,1292 # 20300 <begin_regstate>
    4dfc:	004fa083          	lw	ra,4(t6)
    4e00:	014fa283          	lw	t0,20(t6)
    4e04:	018fa303          	lw	t1,24(t6)
    4e08:	020fa403          	lw	s0,32(t6)
    4e0c:	028fa503          	lw	a0,40(t6)
    4e10:	0001bf97          	auipc	t6,0x1b
    4e14:	4f0f8f93          	addi	t6,t6,1264 # 20300 <begin_regstate>
    4e18:	001fa223          	sw	ra,4(t6)
    4e1c:	005faa23          	sw	t0,20(t6)
    4e20:	006fac23          	sw	t1,24(t6)
    4e24:	028fa023          	sw	s0,32(t6)
    4e28:	02afa423          	sw	a0,40(t6)
    4e2c:	0001c517          	auipc	a0,0x1c
    4e30:	da050513          	addi	a0,a0,-608 # 20bcc <end_regstate+0x7cc>
    4e34:	b88fb0ef          	jal	1bc <FN_WriteStr>
    4e38:	0001bf97          	auipc	t6,0x1b
    4e3c:	4c8f8f93          	addi	t6,t6,1224 # 20300 <begin_regstate>
    4e40:	004fa083          	lw	ra,4(t6)
    4e44:	014fa283          	lw	t0,20(t6)
    4e48:	018fa303          	lw	t1,24(t6)
    4e4c:	020fa403          	lw	s0,32(t6)
    4e50:	028fa503          	lw	a0,40(t6)
    4e54:	0001bf97          	auipc	t6,0x1b
    4e58:	4acf8f93          	addi	t6,t6,1196 # 20300 <begin_regstate>
    4e5c:	001fa223          	sw	ra,4(t6)
    4e60:	005faa23          	sw	t0,20(t6)
    4e64:	006fac23          	sw	t1,24(t6)
    4e68:	028fa023          	sw	s0,32(t6)
    4e6c:	02afa423          	sw	a0,40(t6)
    4e70:	0001c517          	auipc	a0,0x1c
    4e74:	d6650513          	addi	a0,a0,-666 # 20bd6 <end_regstate+0x7d6>
    4e78:	b44fb0ef          	jal	1bc <FN_WriteStr>
    4e7c:	0001bf97          	auipc	t6,0x1b
    4e80:	484f8f93          	addi	t6,t6,1156 # 20300 <begin_regstate>
    4e84:	004fa083          	lw	ra,4(t6)
    4e88:	014fa283          	lw	t0,20(t6)
    4e8c:	018fa303          	lw	t1,24(t6)
    4e90:	020fa403          	lw	s0,32(t6)
    4e94:	028fa503          	lw	a0,40(t6)
    4e98:	06400193          	li	gp,100
    4e9c:	0ff0000f          	fence
    4ea0:	00018063          	beqz	gp,4ea0 <FN_WriteA0_common+0x4c6c>
    4ea4:	00119193          	slli	gp,gp,0x1
    4ea8:	0011e193          	ori	gp,gp,1
    4eac:	00000073          	ecall
    4eb0:	0001b117          	auipc	sp,0x1b
    4eb4:	45010113          	addi	sp,sp,1104 # 20300 <begin_regstate>
    4eb8:	00412083          	lw	ra,4(sp)
    4ebc:	01412283          	lw	t0,20(sp)
    4ec0:	01812303          	lw	t1,24(sp)
    4ec4:	02012403          	lw	s0,32(sp)
    4ec8:	02812503          	lw	a0,40(sp)
    4ecc:	80000437          	lui	s0,0x80000
    4ed0:	fff40413          	addi	s0,s0,-1 # 7fffffff <_edata+0x7ffdf125>
    4ed4:	00100c93          	li	s9,1
    4ed8:	01940bb3          	add	s7,s0,s9
    4edc:	0170a623          	sw	s7,12(ra)
    4ee0:	0001b117          	auipc	sp,0x1b
    4ee4:	42010113          	addi	sp,sp,1056 # 20300 <begin_regstate>
    4ee8:	00112223          	sw	ra,4(sp)
    4eec:	00512a23          	sw	t0,20(sp)
    4ef0:	00612c23          	sw	t1,24(sp)
    4ef4:	02812023          	sw	s0,32(sp)
    4ef8:	02a12423          	sw	a0,40(sp)
    4efc:	000b8413          	mv	s0,s7
    4f00:	800002b7          	lui	t0,0x80000
    4f04:	2c540663          	beq	s0,t0,51d0 <FN_WriteA0_common+0x4f9c>
    4f08:	0001bf97          	auipc	t6,0x1b
    4f0c:	3f8f8f93          	addi	t6,t6,1016 # 20300 <begin_regstate>
    4f10:	001fa223          	sw	ra,4(t6)
    4f14:	005faa23          	sw	t0,20(t6)
    4f18:	006fac23          	sw	t1,24(t6)
    4f1c:	028fa023          	sw	s0,32(t6)
    4f20:	02afa423          	sw	a0,40(t6)
    4f24:	0001c517          	auipc	a0,0x1c
    4f28:	cb450513          	addi	a0,a0,-844 # 20bd8 <end_regstate+0x7d8>
    4f2c:	a90fb0ef          	jal	1bc <FN_WriteStr>
    4f30:	0001bf97          	auipc	t6,0x1b
    4f34:	3d0f8f93          	addi	t6,t6,976 # 20300 <begin_regstate>
    4f38:	004fa083          	lw	ra,4(t6)
    4f3c:	014fa283          	lw	t0,20(t6)
    4f40:	018fa303          	lw	t1,24(t6)
    4f44:	020fa403          	lw	s0,32(t6)
    4f48:	028fa503          	lw	a0,40(t6)
    4f4c:	0001bf97          	auipc	t6,0x1b
    4f50:	3b4f8f93          	addi	t6,t6,948 # 20300 <begin_regstate>
    4f54:	001fa223          	sw	ra,4(t6)
    4f58:	005faa23          	sw	t0,20(t6)
    4f5c:	006fac23          	sw	t1,24(t6)
    4f60:	028fa023          	sw	s0,32(t6)
    4f64:	02afa423          	sw	a0,40(t6)
    4f68:	0001c517          	auipc	a0,0x1c
    4f6c:	c8b50513          	addi	a0,a0,-885 # 20bf3 <end_regstate+0x7f3>
    4f70:	a4cfb0ef          	jal	1bc <FN_WriteStr>
    4f74:	0001bf97          	auipc	t6,0x1b
    4f78:	38cf8f93          	addi	t6,t6,908 # 20300 <begin_regstate>
    4f7c:	004fa083          	lw	ra,4(t6)
    4f80:	014fa283          	lw	t0,20(t6)
    4f84:	018fa303          	lw	t1,24(t6)
    4f88:	020fa403          	lw	s0,32(t6)
    4f8c:	028fa503          	lw	a0,40(t6)
    4f90:	0001bf97          	auipc	t6,0x1b
    4f94:	370f8f93          	addi	t6,t6,880 # 20300 <begin_regstate>
    4f98:	001fa223          	sw	ra,4(t6)
    4f9c:	005faa23          	sw	t0,20(t6)
    4fa0:	006fac23          	sw	t1,24(t6)
    4fa4:	028fa023          	sw	s0,32(t6)
    4fa8:	02afa423          	sw	a0,40(t6)
    4fac:	0001c517          	auipc	a0,0x1c
    4fb0:	c5650513          	addi	a0,a0,-938 # 20c02 <end_regstate+0x802>
    4fb4:	a08fb0ef          	jal	1bc <FN_WriteStr>
    4fb8:	0001bf97          	auipc	t6,0x1b
    4fbc:	348f8f93          	addi	t6,t6,840 # 20300 <begin_regstate>
    4fc0:	004fa083          	lw	ra,4(t6)
    4fc4:	014fa283          	lw	t0,20(t6)
    4fc8:	018fa303          	lw	t1,24(t6)
    4fcc:	020fa403          	lw	s0,32(t6)
    4fd0:	028fa503          	lw	a0,40(t6)
    4fd4:	0001bf97          	auipc	t6,0x1b
    4fd8:	32cf8f93          	addi	t6,t6,812 # 20300 <begin_regstate>
    4fdc:	001fa223          	sw	ra,4(t6)
    4fe0:	005faa23          	sw	t0,20(t6)
    4fe4:	006fac23          	sw	t1,24(t6)
    4fe8:	028fa023          	sw	s0,32(t6)
    4fec:	02afa423          	sw	a0,40(t6)
    4ff0:	0001c517          	auipc	a0,0x1c
    4ff4:	c1a50513          	addi	a0,a0,-998 # 20c0a <end_regstate+0x80a>
    4ff8:	9c4fb0ef          	jal	1bc <FN_WriteStr>
    4ffc:	0001bf97          	auipc	t6,0x1b
    5000:	304f8f93          	addi	t6,t6,772 # 20300 <begin_regstate>
    5004:	004fa083          	lw	ra,4(t6)
    5008:	014fa283          	lw	t0,20(t6)
    500c:	018fa303          	lw	t1,24(t6)
    5010:	020fa403          	lw	s0,32(t6)
    5014:	028fa503          	lw	a0,40(t6)
    5018:	0001bf97          	auipc	t6,0x1b
    501c:	2e8f8f93          	addi	t6,t6,744 # 20300 <begin_regstate>
    5020:	001fa223          	sw	ra,4(t6)
    5024:	005faa23          	sw	t0,20(t6)
    5028:	006fac23          	sw	t1,24(t6)
    502c:	028fa023          	sw	s0,32(t6)
    5030:	02afa423          	sw	a0,40(t6)
    5034:	0001c517          	auipc	a0,0x1c
    5038:	bda50513          	addi	a0,a0,-1062 # 20c0e <end_regstate+0x80e>
    503c:	980fb0ef          	jal	1bc <FN_WriteStr>
    5040:	0001bf97          	auipc	t6,0x1b
    5044:	2c0f8f93          	addi	t6,t6,704 # 20300 <begin_regstate>
    5048:	004fa083          	lw	ra,4(t6)
    504c:	014fa283          	lw	t0,20(t6)
    5050:	018fa303          	lw	t1,24(t6)
    5054:	020fa403          	lw	s0,32(t6)
    5058:	028fa503          	lw	a0,40(t6)
    505c:	0001bf97          	auipc	t6,0x1b
    5060:	2a4f8f93          	addi	t6,t6,676 # 20300 <begin_regstate>
    5064:	001fa223          	sw	ra,4(t6)
    5068:	005faa23          	sw	t0,20(t6)
    506c:	006fac23          	sw	t1,24(t6)
    5070:	028fa023          	sw	s0,32(t6)
    5074:	02afa423          	sw	a0,40(t6)
    5078:	0001c517          	auipc	a0,0x1c
    507c:	b9950513          	addi	a0,a0,-1127 # 20c11 <end_regstate+0x811>
    5080:	93cfb0ef          	jal	1bc <FN_WriteStr>
    5084:	0001bf97          	auipc	t6,0x1b
    5088:	27cf8f93          	addi	t6,t6,636 # 20300 <begin_regstate>
    508c:	004fa083          	lw	ra,4(t6)
    5090:	014fa283          	lw	t0,20(t6)
    5094:	018fa303          	lw	t1,24(t6)
    5098:	020fa403          	lw	s0,32(t6)
    509c:	028fa503          	lw	a0,40(t6)
    50a0:	0001bf97          	auipc	t6,0x1b
    50a4:	260f8f93          	addi	t6,t6,608 # 20300 <begin_regstate>
    50a8:	001fa223          	sw	ra,4(t6)
    50ac:	005faa23          	sw	t0,20(t6)
    50b0:	006fac23          	sw	t1,24(t6)
    50b4:	028fa023          	sw	s0,32(t6)
    50b8:	02afa423          	sw	a0,40(t6)
    50bc:	0001c517          	auipc	a0,0x1c
    50c0:	b5950513          	addi	a0,a0,-1191 # 20c15 <end_regstate+0x815>
    50c4:	8f8fb0ef          	jal	1bc <FN_WriteStr>
    50c8:	0001bf97          	auipc	t6,0x1b
    50cc:	238f8f93          	addi	t6,t6,568 # 20300 <begin_regstate>
    50d0:	004fa083          	lw	ra,4(t6)
    50d4:	014fa283          	lw	t0,20(t6)
    50d8:	018fa303          	lw	t1,24(t6)
    50dc:	020fa403          	lw	s0,32(t6)
    50e0:	028fa503          	lw	a0,40(t6)
    50e4:	00040513          	mv	a0,s0
    50e8:	8f4fb0ef          	jal	1dc <FN_WriteA0>
    50ec:	0001bf97          	auipc	t6,0x1b
    50f0:	214f8f93          	addi	t6,t6,532 # 20300 <begin_regstate>
    50f4:	001fa223          	sw	ra,4(t6)
    50f8:	005faa23          	sw	t0,20(t6)
    50fc:	006fac23          	sw	t1,24(t6)
    5100:	028fa023          	sw	s0,32(t6)
    5104:	02afa423          	sw	a0,40(t6)
    5108:	0001c517          	auipc	a0,0x1c
    510c:	b0f50513          	addi	a0,a0,-1265 # 20c17 <end_regstate+0x817>
    5110:	8acfb0ef          	jal	1bc <FN_WriteStr>
    5114:	0001bf97          	auipc	t6,0x1b
    5118:	1ecf8f93          	addi	t6,t6,492 # 20300 <begin_regstate>
    511c:	004fa083          	lw	ra,4(t6)
    5120:	014fa283          	lw	t0,20(t6)
    5124:	018fa303          	lw	t1,24(t6)
    5128:	020fa403          	lw	s0,32(t6)
    512c:	028fa503          	lw	a0,40(t6)
    5130:	0001bf97          	auipc	t6,0x1b
    5134:	1d0f8f93          	addi	t6,t6,464 # 20300 <begin_regstate>
    5138:	001fa223          	sw	ra,4(t6)
    513c:	005faa23          	sw	t0,20(t6)
    5140:	006fac23          	sw	t1,24(t6)
    5144:	028fa023          	sw	s0,32(t6)
    5148:	02afa423          	sw	a0,40(t6)
    514c:	0001c517          	auipc	a0,0x1c
    5150:	ad150513          	addi	a0,a0,-1327 # 20c1d <end_regstate+0x81d>
    5154:	868fb0ef          	jal	1bc <FN_WriteStr>
    5158:	0001bf97          	auipc	t6,0x1b
    515c:	1a8f8f93          	addi	t6,t6,424 # 20300 <begin_regstate>
    5160:	004fa083          	lw	ra,4(t6)
    5164:	014fa283          	lw	t0,20(t6)
    5168:	018fa303          	lw	t1,24(t6)
    516c:	020fa403          	lw	s0,32(t6)
    5170:	028fa503          	lw	a0,40(t6)
    5174:	0001bf97          	auipc	t6,0x1b
    5178:	18cf8f93          	addi	t6,t6,396 # 20300 <begin_regstate>
    517c:	001fa223          	sw	ra,4(t6)
    5180:	005faa23          	sw	t0,20(t6)
    5184:	006fac23          	sw	t1,24(t6)
    5188:	028fa023          	sw	s0,32(t6)
    518c:	02afa423          	sw	a0,40(t6)
    5190:	0001c517          	auipc	a0,0x1c
    5194:	a9850513          	addi	a0,a0,-1384 # 20c28 <end_regstate+0x828>
    5198:	824fb0ef          	jal	1bc <FN_WriteStr>
    519c:	0001bf97          	auipc	t6,0x1b
    51a0:	164f8f93          	addi	t6,t6,356 # 20300 <begin_regstate>
    51a4:	004fa083          	lw	ra,4(t6)
    51a8:	014fa283          	lw	t0,20(t6)
    51ac:	018fa303          	lw	t1,24(t6)
    51b0:	020fa403          	lw	s0,32(t6)
    51b4:	028fa503          	lw	a0,40(t6)
    51b8:	06400193          	li	gp,100
    51bc:	0ff0000f          	fence
    51c0:	00018063          	beqz	gp,51c0 <FN_WriteA0_common+0x4f8c>
    51c4:	00119193          	slli	gp,gp,0x1
    51c8:	0011e193          	ori	gp,gp,1
    51cc:	00000073          	ecall
    51d0:	0001b117          	auipc	sp,0x1b
    51d4:	13010113          	addi	sp,sp,304 # 20300 <begin_regstate>
    51d8:	00412083          	lw	ra,4(sp)
    51dc:	01412283          	lw	t0,20(sp)
    51e0:	01812303          	lw	t1,24(sp)
    51e4:	02012403          	lw	s0,32(sp)
    51e8:	02812503          	lw	a0,40(sp)
    51ec:	00100393          	li	t2,1
    51f0:	80000c37          	lui	s8,0x80000
    51f4:	fffc0c13          	addi	s8,s8,-1 # 7fffffff <_edata+0x7ffdf125>
    51f8:	01838c33          	add	s8,t2,s8
    51fc:	0180a823          	sw	s8,16(ra)
    5200:	0001b117          	auipc	sp,0x1b
    5204:	10010113          	addi	sp,sp,256 # 20300 <begin_regstate>
    5208:	00112223          	sw	ra,4(sp)
    520c:	00512a23          	sw	t0,20(sp)
    5210:	00612c23          	sw	t1,24(sp)
    5214:	02812023          	sw	s0,32(sp)
    5218:	02a12423          	sw	a0,40(sp)
    521c:	000c0413          	mv	s0,s8
    5220:	800002b7          	lui	t0,0x80000
    5224:	2c540663          	beq	s0,t0,54f0 <FN_WriteA0_common+0x52bc>
    5228:	0001bf97          	auipc	t6,0x1b
    522c:	0d8f8f93          	addi	t6,t6,216 # 20300 <begin_regstate>
    5230:	001fa223          	sw	ra,4(t6)
    5234:	005faa23          	sw	t0,20(t6)
    5238:	006fac23          	sw	t1,24(t6)
    523c:	028fa023          	sw	s0,32(t6)
    5240:	02afa423          	sw	a0,40(t6)
    5244:	0001c517          	auipc	a0,0x1c
    5248:	9e650513          	addi	a0,a0,-1562 # 20c2a <end_regstate+0x82a>
